(dp0
Vcheesy sausage ring
p1
I850
sVyellow
p2
I5775
sVthinly salami
p3
I5314
sVlarge seedless watermelon cut cube
p4
I3113
sVbrown mustard
p5
I565
sVsquare egg roll wrapper
p6
I5014
sVwhite turkey meat
p7
I5721
sVtaco shell
p8
I5180
sVcarapelli
p9
I754
sVgarlic clove
p10
I2174
sVeagle brand milk
p11
I1513
sVlarge onion
p12
I3067
sVblack olive
p13
I379
sVpine nut
p14
I4017
sVdeli
p15
I1389
sVhot bread roll mix yeast
p16
I2638
sVserrano pepper
p17
I4638
sVsnow thinly
p18
I4894
sVcorn chex rice chex wheat chex cereal combination
p19
I1167
sVwooden
p20
I5757
sVitalian-seasoned bread crumb
p21
I2765
sVanise extract
p22
I91
sVwheat pita cut quarter
p23
I5671
sVfrozen blueberry
p24
I2078
sVrom plum tomato thinly
p25
I4459
sVbone-in shank ham
p26
I426
sVbacon
p27
I169
sVmillet
p28
I3573
sVfluid water
p29
I1829
sVwalnut oil
p30
I5624
sVcooking
p31
I1155
sVbone-in pork chop thick
p32
I424
sVherb
p33
I2574
sVjasmine
p34
I2873
sVcandy-coated milk chocolate piece
p35
I726
sVshell-on jumbo shrimp
p36
I4674
sVespresso strong coffee
p37
I1580
sVcoarsely fresh cilantro
p38
I1055
sVgolden
p39
I2253
sVstrip canadian-style bacon
p40
I5090
sVtomato pasta sauce
p41
I5375
sVchick pea garbanzo bean
p42
I869
sVlarge head bite-size piece
p43
I3049
sVbutterscotch-flavored chip
p44
I681
sVgranular sucrolose sweetener splenda
p45
I2305
sVthinly fully pork
p46
I5294
sVcreme fraiche
p47
I1259
sVgarlic scape
p48
I2194
sVcarton egg substitute
p49
I784
sVdry pancake mix
p50
I1491
sVextra-firm
p51
I1581
sVbean sprout
p52
I281
sVwhite mushroom thinly
p53
I5706
sVpure pumpkin
p54
I4235
sVgreen pea
p55
I2383
sVsandies
p56
I4552
sVlarge sea scallop
p57
I3112
sVitalian bread thick
p58
I2751
sVloaf white sandwich bread
p59
I3319
sVloaf banana
p60
I3277
sVbeet liquid
p61
I341
sVpreferably
p62
I4158
sVadobo sauce chipotle pepper
p63
I16
sVfrozen cut green bean
p64
I2091
sVmini sandwich roll
p65
I3586
sVfresh frozen blueberry
p66
I1923
sVhot
p67
I2637
sVherb lemon soup mix
p68
I2578
sVfresh green bean piece
p69
I1936
sVbeauty
p70
I287
sVfrench bread cube piece
p71
I1860
sVraspberry vinaigrette
p72
I4282
sVtomato-based
p73
I5387
sVnonfat ricotta cheese
p74
I3709
sVsteel-cut oat
p75
I5058
sVdry-roasted
p76
I1504
sVrum extract
p77
I4493
sVparmigiano-reggiano cheese
p78
I3878
sVwine
p79
I5743
sVgrain bread
p80
I2292
sVherb garlic cream cheese
p81
I2575
sVbaby potato
p82
I165
sVsandwich roll hamburger roll split
p83
I4555
sVbunch kale
p84
I630
sVsmall scallop
p85
I4853
sVdiagonally
p86
I1408
sVjar caper
p87
I2812
sVfig
p88
I1647
sVhidden
p89
I2590
sVfin
p90
I1661
sVred food coloring
p91
I4328
sVbunch finely cilantro
p92
I606
sVfinely chipotle chile adobo sauce
p93
I1677
sVmedium apple thinly
p94
I3467
sVfennel bulb
p95
I1632
sVfresh red grapefruit juice
p96
I2004
sVsilver
p97
I4713
sVcola-flavored beverage
p98
I1094
sVmayonnaise hellman 's
p99
I3443
sVthyme
p100
I5328
sVgoya white vinegar
p101
I2283
sVpiece fresh ginger
p102
I3997
sVpeach yogurt
p103
I3909
sVapricot jam
p104
I110
sVquick cooking oat
p105
I4248
sVkidney bean retain liquid
p106
I2926
sVcooking spray
p107
I1158
sVself-rising flour
p108
I4621
sVfettuccine pasta
p109
I1640
sVwhip
p110
I5675
sVskinless halibut large piece
p111
I4759
sVdevil 's food cake mix
p112
I1404
sVblue paste food
p113
I405
sVbrown mustard seed
p114
I566
sVro
p115
I4446
sVnacho-flavor tortilla chip
p116
I3673
sVskinless peanut
p117
I4760
sVsheet
p118
I4664
sVcook butterscotch mix
p119
I1147
sVroughly carrot
p120
I4486
sVvegetarian sausage link morningstar farm
p121
I5588
sVpork sparerib
p122
I4108
sVgreen salsa salsa verde
p123
I2390
sVroast turkey meat
p124
I4450
sVlarge green thin strip
p125
I3046
sVmedium sugar pumpkin
p126
I3522
sVthinly green cabbage
p127
I5296
sVstone ground cornmeal
p128
I5069
sVlarge sweet onion
p129
I3128
sVtomato wedge
p130
I5386
sVseedless red grape
p131
I4616
sVinstant lemon mix
p132
I2728
sVsoup base
p133
I4920
sVdanish
p134
I1354
sVdinner roll dough
p135
I1436
sVfresh fettuccine
p136
I1919
sVwheat bread
p137
I5662
sVsalt fresh ground taste
p138
I4534
sVbunch fresh cilantro taste
p139
I613
sVred curry paste
p140
I4325
sVgoya
p141
I2264
sVsun-dried tomato
p142
I5118
sVboston
p143
I474
sVsmall mint leaf
p144
I4822
sVhickory wood chip
p145
I2589
sVlemon juice
p146
I3192
sVmedium shrimp tail
p147
I3521
sVgoat cheese room temperature
p148
I2247
sVflank steak
p149
I1755
sVapricot-mango nectar
p150
I114
sVwooden skewer
p151
I5758
sVrice wrapper diameter
p152
I4428
sVenglish hothouse cucumber
p153
I1562
sVprepared potato salad
p154
I4195
sVgreen curry paste
p155
I2358
sVthousand island salad taste
p156
I5324
sVmedium red onion ring
p157
I3512
sVpre-baked pizza crust
p158
I4153
sVnatural crunchy peanut butter
p159
I3676
sVunsalted butter margarine
p160
I5523
sVbacon finely
p161
I182
sVdijon mustard grey country mustard
p162
I1422
sVtequila
p163
I5212
sVmedium garlic clove
p164
I3485
sVgranular no-calorie sucralose sweetener e splenda
p165
I2304
sVfennel
p166
I1631
sVlarge green bell roughly
p167
I3043
sVgoya all-purpose pepper taste
p168
I2265
sVgarlic-chili
p169
I2198
sVcaper
p170
I744
sVbush
p171
I643
sVpimento-stuffed green olive
p172
I4011
sVprepared chocolate frosting
p173
I4170
sVrice
p174
I4415
sVfresh orange juice
p175
I1985
sVfresno pepper
p176
I2066
sVkidney bean
p177
I2925
sVchocolate syrup
p178
I961
sVcoarsely mint leaf
p179
I1063
sVolive oil butter
p180
I3750
sVfluid bottle chili sauce
p181
I1796
sVchutney
p182
I990
sVlollipop stick
p183
I3328
sVpretzel
p184
I4205
sVspice island pumpkin pie spice
p185
I4961
sVitalian-style
p186
I2766
sVbleu
p187
I396
sVemmentaler
p188
I1554
sVheirloom
p189
I2568
sVrom tomato
p190
I4460
sVpork loin
p191
I4096
sVwhite wheat flour
p192
I5726
sVhalloween-colored chocolate sandwich cooky
p193
I2486
sVjar red pepper thin strip
p194
I2856
sVsmall head broccoli
p195
I4808
sVserrano chile pepper finely
p196
I4636
sVpiece konbu kelp
p197
I4000
sVfresh broccoli floret
p198
I1892
sVyogurt
p199
I5798
sVwater-packed tuna
p200
I5645
sVpreserve
p201
I4204
sVshell puff pastry
p202
I4672
sVgingersnap cookie crumb
p203
I2229
sVsmucker
p204
I4888
sVslab baby pork rib
p205
I4762
sVmedallion
p206
I3465
sVbarbecue sauce
p207
I251
sVself-rising
p208
I4619
sVcountry
p209
I1204
sVbacon pancetta
p210
I185
sVfinely white onion
p211
I1732
sVskinless boneless breast cut strip
p212
I4741
sVcoarsely cilantro leaf
p213
I1050
sVpita
p214
I4036
sVcoleslaw blend cabbage slaw mix
p215
I1119
sVmedium potato paper-thin
p216
I3507
sVblue cornmeal
p217
I403
sVlit'l
p218
I3271
sVinstant chocolate pudding mix
p219
I2720
sVcaraway seed
p220
I757
sVseashell
p221
I4597
sVlettuce taste
p222
I3213
sVgrapefruit
p223
I2313
sVgyoza
p224
I2471
sVfinely chipotle pepper adobo sauce
p225
I1679
sVfry
p226
I2148
sVfreshly-cracked white pepper
p227
I2061
sVdouble-strength
p228
I1448
sVcannellini white kidney bean
p229
I734
sVbutternut squash thinly
p230
I677
sVchile
p231
I908
sVchili
p232
I915
sVhard egg shell
p233
I2504
sVlight beer
p234
I3218
sVprocess american cheese
p235
I4209
sVsweet onion finely
p236
I5147
sVisraeli-style
p237
I2745
sVdeli turkey breast
p238
I1392
sVorange peel freshly
p239
I3794
sVuncooked regular long-grain white rice
p240
I5501
sVszechwan sauce
p241
I5172
sVbunch celery bite-size piece
p242
I598
sVgoya pepper taste
p243
I2278
sVpot roast
p244
I4131
sVmedium head cabbage thin
p245
I3495
sVportobello
p246
I4125
sVitalian dry bread crumb
p247
I2753
sVsplit
p248
I4980
sVthick-cut
p249
I5241
sVtoasted
p250
I5345
sVpickle garnish
p251
I3981
sVlime jell-o mix
p252
I3244
sVconfectioner sugar
p253
I1141
sVtuna
p254
I5431
sVbarbeque sauce
p255
I253
sVturkey breast cut strip
p256
I5440
sVred quinoa dry
p257
I4362
sVbeet green cut thin sliver
p258
I340
sVfine salt
p259
I1666
sVmini candy-coated chocolate piece
p260
I3581
sVlightly freshly parmesan cheese
p261
I3236
sVlarge tart apple
p262
I3133
sVbunch fresh oregano sprig
p263
I616
sVsoy sauce taste
p264
I4942
sVcheddar-monterey jack cheese blend
p265
I833
sVdry taco mix
p266
I1499
sVham
p267
I2489
sVapple cider syrup
p268
I98
sVold-fashioned
p269
I3743
sVzucchini cut
p270
I5815
sVmanzanilla
p271
I3399
sVroast beef
p272
I4448
sVlink sweet italian sausage
p273
I3264
sVenchilada
p274
I1556
sVlow-fat milk
p275
I3349
sVfresh mint leaf
p276
I1969
sVport wine
p277
I4119
sVsaltine cracker
p278
I4546
sVkikkoman ponzu lime
p279
I2935
sVfine bread crumb
p280
I1663
sVbaker 's semi-sweet baking chocolate
p281
I215
sVsweet potato cut piece
p282
I5155
sVsoft margarine
p283
I4908
sVlarge spanish onion ring
p284
I3123
sVlarge egg white beaten
p285
I3011
sVcola-flavored
p286
I1093
sVfresh blueberry frozen blueberry
p287
I1888
sVhot chile pepper
p288
I2643
sVegg equivalent egg substitute
p289
I1525
sVdry mix ingredient
p290
I1486
sVtablespoon-size
p291
I5175
sVokra
p292
I3741
sVbottom
p293
I507
sVmedium onion piece
p294
I3503
sVarborio rice
p295
I116
sVroot beer
p296
I4472
sVprepared chocolate pie crust
p297
I4171
sVbeef cut chunk
p298
I300
sVcrescent roll dough
p299
I1275
sVel paso thick 'n chunky salsa
p300
I1550
sVunbaked pizza crust
p301
I5462
sVlink johnsonville original breakfast sausage
p302
I3262
sVchili bean
p303
I916
sVcheddar mozzarella provolone cheese
p304
I830
sVraspberry walnut vinaigrette
p305
I4284
sVenglish seedless cucumber
p306
I1567
sVunsalted butter room temperature
p307
I5524
sVslightly
p308
I4778
sVstrawberry frozen strawberry
p309
I5076
sVmultigrain saltine cracker
p310
I3654
sVlarge yellow onion
p311
I3144
sVdry italian salad mix good season
p312
I1478
sVbutter margarine
p313
I656
sVpotato cut chunk
p314
I4135
sVjar cheese
p315
I2815
sVsoy
p316
I4935
sVprepared thai peanut sauce
p317
I4201
sVhalf-and-half
p318
I2478
sVlean beef brisket
p319
I3169
sVlight margarine i ca n't 's butter
p320
I3226
sVjar apricot preserve
p321
I2807
sVstalk celery cut chunk
p322
I5036
sVseedless cucumber
p323
I4612
sVmonterey jack cheese mexican cheese blend
p324
I3630
sVitalian plum tomato
p325
I2756
sVwhite onion
p326
I5707
sVtorn fresh spinach
p327
I5403
sVlarge ripe banana
p328
I3106
sVsubmarine roll split
p329
I5101
sVverde
p330
I5596
sVspice island pure vanilla extract
p331
I4963
sVprovolone cheese cut
p332
I4219
sVuncooked egg noodle
p333
I5476
sVlarge croissant
p334
I2998
sVpaprika
p335
I3868
sVfinely diakon radish
p336
I1685
sVneufchatel
p337
I3687
sVbeef steak paper thin
p338
I326
sVflat-leaf parsley leaf
p339
I1765
sVfruit preserve flavor
p340
I2147
sVbroccoli floret bite-size piece
p341
I560
sVprepared coarse-ground mustard
p342
I4172
sVtomato finely
p343
I5361
sVgenoa bite-size piece
p344
I2209
sVcream coconut
p345
I1239
sVfluid bottle irish stout beer e guinness
p346
I1800
sVoscar
p347
I3819
sVleek
p348
I3178
sV's
p349
I1
sVready-to-eat ham
p350
I4297
sVcenter
p351
I813
sV'n
p352
I0
sVyellow purple onion
p353
I5795
sVcube chicken bouillon
p354
I1309
sVwide egg noodle
p355
I5737
sVprepared pesto grocer 's refrigerated section
p356
I4192
sVcannellini bean taste
p357
I732
sVlacinato
p358
I2959
sVfive-spice
p359
I1747
sVpecan
p360
I3928
sVinch-thick
p361
I2708
sVdry white bread
p362
I1501
sVcucumber cut cube
p363
I1326
sVcooked medium shrimp
p364
I1151
sVsriracha sauce
p365
I5027
sVcelery rib thinly
p366
I808
sVcinnamon-flavored bear-shaped graham cooky
p367
I1011
sVlarge red potato
p368
I3104
sVfinely walnut
p369
I1730
sVdemerara
p370
I1401
sVicing
p371
I2704
sVjerk
p372
I2879
sVbag chocolate chip
p373
I194
sVchoice
p374
I965
sVfarro
p375
I1608
sVavocado lengthwise
p376
I153
sVminute
p377
I3598
sVonion salt taste
p378
I3777
sVmahi
p379
I3384
sVcooky
p380
I1159
sVfreshly parmesan cheese taste
p381
I2055
sVskewer
p382
I4724
sVsalmon bone
p383
I4520
sVgreen grape
p384
I2361
sVhash brown potato
p385
I2517
sVhavarti cheese
p386
I2520
sVskinless boneless bite-sized piece
p387
I4733
sVfluid lemon juice
p388
I1819
sVcrescent
p389
I1271
sVcrab meat
p390
I1212
sVfrankfurter
p391
I1847
sVlow-fat small curd cottage cheese
p392
I3353
sVkingsford
p393
I2941
sVtomato sieve
p394
I5381
sVgreen chile pepper
p395
I2354
sVfluid bottle russian-style salad
p396
I1807
sVyellow bell small dice
p397
I5779
sVcrumbles
p398
I1298
sVcotto salami
p399
I1200
sVranch taste
p400
I4267
sVtub philadelphia chive onion cream cheese spread
p401
I5425
sVfresh raspberry
p402
I2001
sVsmokies
p403
I4885
sVradish
p404
I4255
sVjar heart liquid
p405
I2826
sVgreen chile enchilada sauce
p406
I2353
sVbutterball boneless breast turkey roast
p407
I667
sVlarge portobello mushroom cap
p408
I3086
sVwood
p409
I5754
sVfresh lime juice avocado layer
p410
I1962
sVbutternut squash
p411
I675
sVcinnamon cream cheese
p412
I1006
sVlarge egg room temperature
p413
I3009
sVsparerib
p414
I4956
sVlarge onion cut thin strip
p415
I3072
sVchicken wing split
p416
I902
sVdark beer
p417
I1357
sVpear cut lengthwise
p418
I3921
sVshredded tart apple
p419
I4705
sVpumpkin
p420
I4228
sVwood chip
p421
I5755
sVtiger prawn
p422
I5334
sVunsalted butter small piece
p423
I5525
sVmatzo
p424
I3437
sVpie shell
p425
I3992
sVlarge garlic
p426
I3028
sVsavoy
p427
I4577
sVwinter
p428
I5746
sVprosciutto thinly
p429
I4214
sVtostada shell
p430
I5412
sVred cooking wine
p431
I4323
sVwood ear mushroom
p432
I5756
sVcornstarch mixed equal part water
p433
I1193
sVcheese food velveeta
p434
I841
sVflat-cut
p435
I1762
sVyellow mustard
p436
I5789
sVdate
p437
I1371
sVdark rum rum flavoring
p438
I1365
sVlarge avocado
p439
I2973
sVnatural
p440
I3675
sVxanthan
p441
I5769
sVbuttermilk ranch mix
p442
I673
sVmango
p443
I3393
sVmasa harina
p444
I3430
sVlarge potato cut cube
p445
I3090
sVoat bran
p446
I3722
sVgoat cheese taste
p447
I2248
sVpoppyseed hot dog bun
p448
I4087
sVwhite pepper taste
p449
I5711
sVmilk chocolate candy kiss
p450
I3567
sVjif
p451
I2882
sVmachine
p452
I3383
sVred onion finely
p453
I4341
sVsmall cucumber finely
p454
I4795
sVtomato green chile
p455
I5365
sVtorn
p456
I5400
sVhead romaine lettuce
p457
I2553
sVhead red cabbage finely
p458
I2551
sVplain vanilla soy milk
p459
I4062
sVraw apple cider vinegar
p460
I4288
sVbreadstick dough
p461
I539
sVpacket ketchup
p462
I3843
sVred enchilada sauce
p463
I4327
sVketchup
p464
I2920
sVonion flake
p465
I3770
sVhickory
p466
I2587
sVcaramel ice cream topping
p467
I751
sValfalfa sprout
p468
I31
sVloosely packed cilantro leaf
p469
I3338
sVorange brown sprinkle
p470
I3782
sVprepared barbecue sauce
p471
I4162
sVportabella mushroom cap
p472
I4121
sVgreen enchilada sauce
p473
I2359
sVsquare
p474
I5011
sVprepared basil pesto
p475
I4163
sVamaretto
p476
I60
sVbonito dry fish flake
p477
I470
sVmild taco mix
p478
I3564
sVskinless boneless breast cut small piece
p479
I4740
sVlinguini
p480
I3257
sVitalian dressing
p481
I2752
sVorange marmalade
p482
I3791
sVlinguine
p483
I3255
sVfluid bottle dark beer porter
p484
I1798
sVbeef brisket fat
p485
I292
sVcoconut oil
p486
I1081
sVjasmine rice
p487
I2874
sVfat-free chicken broth
p488
I1617
sVbutter spread i ca n't
p489
I661
sVmedium green bell piece
p490
I3488
sVrecipe pie shell
p491
I4308
sVbuttery cracker crumb
p492
I686
sVlarge tomato cut wedge
p493
I3139
sVchicken dry stuffing mix
p494
I885
sVmignon
p495
I3550
sVspanish
p496
I4949
sVgreen bell taste
p497
I2346
sVsprig fresh cilantro garnish
p498
I4991
sVwater taste
p499
I5643
sVnonfat buttermilk
p500
I3705
sVbite
p501
I362
sVsliced belgian endive
p502
I4768
sVstuffed
p503
I5096
sVonion thinly
p504
I3778
sVsun-dried tomato water
p505
I5124
sVpork loin chop thick
p506
I4098
sVwater cover
p507
I5642
sVpotato cut wedge
p508
I4138
sVlow-fat sour cream
p509
I3354
sViceberg
p510
I2701
sVbreadstick
p511
I538
sVchicken-flavored ramen packet
p512
I905
sVgarlic basil spread recipe link
p513
I2171
sVgreen lentil
p514
I2362
sVsan
p515
I4550
sVfrench baguette cut
p516
I1851
sVuncooked linguine pasta
p517
I5488
sVmesquite
p518
I3534
sVvegetarian worcestershire sauce
p519
I5589
sVred pepper
p520
I4347
sVmayer
p521
I3439
sVgranny smith apple thinly
p522
I2301
sVhavarti
p523
I2519
sVcorn tortilla coarsely
p524
I1180
sVsmall ripe tomato
p525
I4852
sVwhite balsamic vinegar
p526
I5682
sVbutterworth
p527
I682
sVuncooked oat
p528
I5496
sVred onion cut lengthwise
p529
I4338
sVwing
p530
I5745
sVdry leek soup mix
p531
I1482
sVmedium onion cut ring
p532
I3500
sVsalt
p533
I4531
sVenvelope mix
p534
I1573
sVred onion finely taste
p535
I4342
sVtomato garlic olive oil
p536
I5363
sVgluten-free flour premium gold flax ancient grain all-purpose flour
p537
I2238
sVbottle white wine
p538
I505
sVvegetable oil cooking spray
p539
I5578
sVfinely herb-seasoned dry bread mix
p540
I1709
sVred shallot
p541
I4367
sVspanish chorizo cut piece
p542
I4950
sVcreamy salad e miracle whip
p543
I1256
sVcorn oil
p544
I1175
sVmandarin
p545
I3389
sVmonde
p546
I3622
sVturkey carcass
p547
I5442
sVsmall jalapeno
p548
I4817
sVprime
p549
I4206
sVshiitake mushroom thinly
p550
I4682
sVcolor food coloring
p551
I1125
sVjalapeno pepper coarsely
p552
I2784
sVtortilla
p553
I5409
sVsmoked boneless ham
p554
I4880
sVmild picante sauce
p555
I3560
sVloosely packed baby spinach
p556
I3337
sVbunch fresh spinach torn
p557
I623
sVgrape leaf
p558
I2310
sVjalapeno
p559
I2776
sVpie shell partially
p560
I3993
sVcajun-style
p561
I700
sVprepared stuffing
p562
I4200
sVfresh cilantro sprig garnish
p563
I1907
sVtomato basil feta cheese
p564
I5354
sVsourdough starter
p565
I4932
sVedamame
p566
I1520
sVwell-marbled beef steak type thinly
p567
I5658
sVcantaloupe
p568
I739
sVraspberry barely
p569
I4278
sVconcentrate
p570
I1137
sVjapanese sushi rice
p571
I2801
sVcornflake
p572
I1185
sVthickly
p573
I5248
sVtamarind juice
p574
I5186
sVextra-virgin olive oil
p575
I1594
sVvital wheat gluten
p576
I5617
sVchorizo
p577
I976
sVlow-fat cottage cheese
p578
I3345
sVsteak seasoning
p579
I5053
sVsquare dinner roll split
p580
I5013
sVfresh basil leaf amount taste
p581
I1883
sVpacket dry onion soup mix
p582
I3836
sVglutinous
p583
I2241
sVblack walnut
p584
I388
sVcorn tortilla chip
p585
I1178
sVcold butter cut small piece
p586
I1106
sVkielbasa sausage cut moon
p587
I2931
sVred quinoa
p588
I4361
sVcolor paste food
p589
I1127
sVsherry vinegar
p590
I4676
sVorange paste food
p591
I3792
sVchicken tip
p592
I898
sVthree-cheese tortellini
p593
I5327
sVlarge acorn squash
p594
I2970
sVsun-dried tomato oil
p595
I5119
sVthousand
p596
I5322
sVshredded italian cheese blend
p597
I4699
sVchocolate chex cereal
p598
I946
sVcurd
p599
I1336
sVfreshly nutmeg
p600
I2052
sVelbow macaroni
p601
I1552
sVsandwich bread
p602
I4554
sVcooking sherry
p603
I1157
sVjar green olive
p604
I2824
sVvirgin olive oil drizzling
p605
I5615
sVlarge potato thickly
p606
I3095
sVrainbow trout fillet
p607
I4257
sVjar chunky salsa
p608
I2817
sVprepared salsa
p609
I4197
sVsourdough bread lightly
p610
I4931
sVfreshly black pepper
p611
I2043
sVlarge fresh tomato
p612
I3026
sVhoney-roasted almond
p613
I2628
sVtaco bell home original taco mix
p614
I5177
sVveal
p615
I5572
sValfredo
p616
I32
sVswiss cheese cut cube
p617
I5166
sVsummer
p618
I5114
sValfredo-style pasta sauce
p619
I35
sVgoya blackeye pea
p620
I2268
sVcilantro
p621
I998
sVmedium celery stalk thick
p622
I3479
sVbroccoli lightly
p623
I561
sVjarred
p624
I2871
sVheart cut torn bite size piece
p625
I2558
sVpot
p626
I4130
sVcrusty
p627
I1304
sVendive
p628
I1558
sVred pepper reserve juice
p629
I4352
sVrice milk
p630
I4419
sVbread cube
p631
I530
sVsmoked salmon bite-size piece
p632
I4882
sVdark
p633
I1356
sVlarge portobello mushroom cap stem gill
p634
I3087
sVbasil leaf
p635
I262
sVboneless beef chuck cut piece
p636
I432
sVclam
p637
I1017
sVbaby spinach leaf
p638
I167
sVfirm tofu cube
p639
I1738
sVlamb shank
p640
I2967
sVhot tomato sauce
p641
I2685
sVpumpkin pie spice
p642
I4230
sVfarfalle pasta
p643
I1605
sVanise seed
p644
I94
sVgarlic-flavor
p645
I2199
sVpickled
p646
I3983
sVsalt taste
p647
I4541
sVdiced orange bell
p648
I1415
sVlobster
p649
I3320
sVmuscovado sugar
p650
I3656
sVshredded american cheese
p651
I4695
sVlarge zucchini
p652
I3149
sVsmall pita torn piece
p653
I4839
sVfrozen dinner roll
p654
I2092
sVreduced-fat sour cream
p655
I4389
sVhaddock fillet
p656
I2476
sVzest
p657
I5808
sVonion salt
p658
I3776
sVthinly beef
p659
I5283
sVfrozen blackberry
p660
I2077
sVcauliflower broken small floret
p661
I794
sVjar red decorator sugar
p662
I2853
sVstone
p663
I5068
sVbarley flour
p664
I258
sVall-purpose biscuit baking mix
p665
I41
sVfavorite
p666
I1629
sVslender
p667
I4766
sVdark rum
p668
I1364
sVvanilla wafer cooky
p669
I5564
sVjar vodka marinara sauce
p670
I2869
sVluck
p671
I3366
sVcreole taste
p672
I1266
sVsoy milk powder
p673
I4938
sVlarge skinless boneless bite-size piece
p674
I3117
sVmarshmallow
p675
I3425
sVasian pear
p676
I142
sVwhite vanilla chip
p677
I5722
sVtahini paste
p678
I5182
sVbag mixed fruit
p679
I201
sVphiladelphia
p680
I3973
sVhen
p681
I2573
sVcompleta
p682
I1133
sVcomplete
p683
I1134
sVfresh green bean cut piece
p684
I1935
sVfresh chive taste
p685
I1900
sVcaesar-style salad
p686
I697
sVcube beef bouillon
p687
I1308
sVchilies
p688
I923
sVbone-in chicken breast skin
p689
I419
sVbalsamic vinaigrette salad taste
p690
I223
sVall-purpose flour coating
p691
I43
sVbar chocolate toffee
p692
I246
sVpastry single crust pie
p693
I3902
sVlemon yogurt
p694
I3202
sVjamaican
p695
I2798
sVpulp
p696
I4224
sVfreshly parmesan cheese
p697
I2054
sVgrilled skinless boneless breast
p698
I2396
sVhellman
p699
I2570
sVdirection
p700
I1441
sVlarge egg lightly
p701
I3008
sVfresh thyme leaf garnish taste
p702
I2032
sVcarrot cut matchstick
p703
I771
sVlarge plain croissant
p704
I3084
sVpita pocket
p705
I4041
sVcream
p706
I1228
sVfinely fresh oregano
p707
I1696
sVfrozen spinach partially
p708
I2136
sVbeef sirloin cut thin strip
p709
I319
sVfarmhouse-style
p710
I1607
sVdry alfredo sauce mix
p711
I1459
sVblack bean drain reserve liquid
p712
I375
sVcurry powder
p713
I1342
sVprime rib roast
p714
I4207
sVtarragon vinegar
p715
I5194
sVfresh
p716
I1874
sVdry potato flake
p717
I1494
sVprovence
p718
I4216
sVfresh cilantro
p719
I1901
sVbocconcini
p720
I408
sVmasa
p721
I3429
sVchocolate cake mix
p722
I943
sVoriginal
p723
I3815
sVapple cut matchstick
p724
I101
sVpaper muffin liner
p725
I3866
sVsherry vinegar taste
p726
I4677
sVhoagie bun split
p727
I2598
sVuncooked lasagna noodle
p728
I5486
sVcoarse sea salt taste
p729
I1039
sVjulienne-sliced
p730
I2896
sVsheet frozen puff pastry
p731
I4665
sVclamato
p732
I1019
sVegg slightly
p733
I1530
sVtail
p734
I5184
sVtm
p735
I5343
sVdressing
p736
I1454
sVnori
p737
I3712
sVkosher salt ground black pepper taste
p738
I2952
sVmedium head cabbage finely
p739
I3494
sVskinless boneless breast meat chunk
p740
I4743
sVtorn fresh basil leaf
p741
I5402
sVsausage piece
p742
I4572
sVlarge
p743
I2969
sVdinosaur
p744
I1439
sVprosciutto
p745
I4212
sVsmall
p746
I4780
sVclam juice
p747
I1018
sVbell color stem seed cut lengthwise
p748
I345
sVpaso
p749
I3889
sVbacon lightly
p750
I184
sVgrease
p751
I2316
sVlink dietz watson buffalo sausage chunk
p752
I3260
sVlarge green wedge
p753
I3047
sVbean green chilies
p754
I280
sVvanilla sauce
p755
I5561
sVfresh mint
p756
I1968
sVegg roll wrapper
p757
I1528
sVsection
p758
I4608
sVcorn tortilla torn strip
p759
I1183
sVsauce kitchen bouquet
p760
I4564
sVhash
p761
I2516
sVthick bacon cut
p762
I5222
sVloaf white bread
p763
I3316
sVpimento-stuffed green olive cut
p764
I4012
sVbrie cheese
p765
I551
sVfat-free small curd cottage cheese
p766
I1623
sVrigatoni pasta
p767
I4432
sVthinly kale
p768
I5300
sVloaf french baguette cut
p769
I3295
sVskim milk
p770
I4726
sVpico
p771
I3986
sVbacon strip
p772
I186
sVvidalia onion
p773
I5601
sVmeatless
p774
I3461
sVloaf day french bread small piece
p775
I3290
sVgreen apple thinly
p776
I2332
sVbar chocolate candy bar
p777
I243
sVlean ground lamb
p778
I3175
sVsmall head cabbage coarsely
p779
I4811
sVoriental-flavored
p780
I3813
sVleaf lettuce
p781
I3164
sVlight molasses
p782
I3228
sVfirmly light brown sugar
p783
I1742
sVfresh bratwurst sausage
p784
I1889
sVamerican cheese
p785
I63
sVred thai curry paste
p786
I4368
sVpearl
p787
I3923
sVinstant pistachio mix
p788
I2730
sVboneless pork shoulder roast
p789
I451
sVmexican oregano
p790
I3537
sVlettuce leaf
p791
I3211
sVpineapple chunk juice
p792
I4021
sVgoya black bean
p793
I2267
sVvanilla extract taste
p794
I5554
sVgreen bell cut matchstick
p795
I2335
sVpure vanilla extract
p796
I4236
sVsmall red potato
p797
I4849
sVkey lime juice
p798
I2923
sVcorn chex cereal
p799
I1166
sVcolby-jack
p800
I1098
sVsalt freshly ground black pepper taste
p801
I4535
sVbunch italian flat leaf parsley
p802
I629
sVsausage cut
p803
I4570
sVfinely yellow onion
p804
I1734
sVcoleslaw mix
p805
I1120
sVmiami-style
p806
I3547
sVsheet phyllo
p807
I4669
sVmeaty ham bone
p808
I3463
sVcroissant split bottom torn piece
p809
I1294
sVfreshly
p810
I2042
sVfrozen o'brien potato
p811
I2111
sVsprinkle
p812
I5008
sVcoarse sea salt kosher salt
p813
I1038
sVpacket taco mix
p814
I3848
sVhead iceberg lettuce cut wedge
p815
I2544
sVplank
p816
I4064
sVteriyaki basting sauce
p817
I5214
sVcomplete pancake mix
p818
I1136
sVbone-in chicken thigh skin
p819
I420
sVmexican
p820
I3535
sVchicken bouillon
p821
I872
sVrefried
p822
I4396
sVsmall banana chunk
p823
I4786
sVbrie
p824
I550
sVprepared pastry shell
p825
I4190
sVskinless boneless breast cut cube
p826
I4738
sVbone-in pork chop
p827
I423
sVcheddar-mozzarella
p828
I834
sVhot mild banana
p829
I2659
sVasparagus piece
p830
I146
sVthree-cheese
p831
I5326
sVsauce
p832
I4563
sVfresh jalapeno chile
p833
I1946
sVhot chili oil
p834
I2645
sVfrozen raspberry
p835
I2128
sVwasabi
p836
I5637
sVyellow potato
p837
I5794
sVtahini sesame-seed paste
p838
I5183
sVchocolate sandwich creme filling
p839
I960
sVnugget
p840
I3714
sVtomatillo cut
p841
I5351
sVloosely
p842
I3336
sVhot pepper jelly
p843
I2667
sVunseasoned rice vinegar
p844
I5533
sVflaxseed
p845
I1774
sVgenoa
p846
I2208
sVbow tie farfalle pasta
p847
I514
sVground thyme
p848
I2452
sVjellied
p849
I2876
sVcrispy rice cereal
p850
I1286
sVprepared honey mustard
p851
I4182
sVbay tm taste
p852
I277
sVlarge ripe mango
p853
I3107
sVpear thinly
p854
I3922
sVfillet orange roughy
p855
I1653
sVpepperjack
p856
I3950
sVfinely red bell
p857
I1719
sVcorkscrew-shaped
p858
I1162
sVcranberry sauce
p859
I1224
sVlarge green bell
p860
I3037
sVsunflower seed
p861
I5126
sVoyster sauce
p862
I3825
sVsweet italian sausage
p863
I5144
sVturmeric powder
p864
I5454
sVkikkoman soy sauce
p865
I2936
sVacorn
p866
I5
sVsmall unripe green banana
p867
I4866
sVdouble-strength coffee
p868
I1449
sVlemon zest
p869
I3203
sVgreen cabbage taste
p870
I2350
sVitalian-style tomato
p871
I2774
sVdark corn syrup
p872
I1361
sVchampagne vinegar
p873
I823
sVmedium red bell bite-size strip
p874
I3509
sVrapid rise yeast
p875
I4273
sVsage breakfast sausage
p876
I4511
sVvegetarian bean
p877
I5587
sVjar buttermilk ranch
p878
I2811
sVrecipe basic crepe
p879
I4302
sVbottle blue cheese salad
p880
I482
sVgarlic oil
p881
I2184
sVshrimp tail
p882
I4710
sVred bell strip
p883
I4318
sVvidalia
p884
I5600
sVcheese food cubed
p885
I840
sVhot paprika
p886
I2663
sVsour cream room temperature
p887
I4925
sVmedium head cabbage
p888
I3492
sVsemisweet
p889
I4626
sVlarge banana cut chunk
p890
I2977
sVcarrot thinly
p891
I780
sVchunk chicken
p892
I984
sVpre-baked
p893
I4151
sVtortellini
p894
I5408
sVlarge red onion cut dice
p895
I3102
sVham cut chunk
p896
I2491
sVlarge green bell pepper
p897
I3040
sVboneless pork loin chop thin
p898
I444
sVroughly sweet potato
p899
I4488
sVtorn kale leaf bite-size piece
p900
I5404
sVbutter cut cube
p901
I649
sVyellow bell pepper
p902
I5778
sVchopped english cucumber
p903
I972
sVbunch fresh asparagus
p904
I607
sVsweet pickle
p905
I5151
sVgreen onion top thinly
p906
I2377
sVturkey breast
p907
I5439
sVdry ranch-style dressing mix
p908
I1496
sVpuree
p909
I4237
sVmild cheddar cheese
p910
I3552
sVsweet onion vidalia
p911
I5149
sVhot chile paste sambal oelek
p912
I2642
sVwheel brie
p913
I5674
sVoyster
p914
I3823
sVliquid egg substitute
p915
I3267
sVfinely chive
p916
I1680
sVcover
p917
I1209
sVcole slaw
p918
I1117
sVitalian-style dry bread crumb
p919
I2768
sVgold
p920
I2252
sVground pork sausage
p921
I2444
sVlengthwise
p922
I3207
sVandouille sausage link finely
p923
I84
sVfrench sandwich roll
p924
I1870
sVblender
p925
I395
sVjar sauerkraut liquid
p926
I2860
sVfritos
p927
I2068
sVcelery rib
p928
I807
sVdrumettes
p929
I1456
sVstalk celery leaf
p930
I5039
sVpotato gnocchi
p931
I4139
sVuntreated
p932
I5546
sVuncooked rice
p933
I5502
sVsleeve
p934
I4764
sVflax seed ground
p935
I1772
sVlow-fat
p936
I3343
sVcaramel
p937
I750
sVfinely bell
p938
I1670
sVmilk water
p939
I3572
sVsec
p940
I4607
sVsea
p941
I4587
sVall-purpose apple
p942
I39
sVritz
p943
I4445
sVloaf cinnamon bread raisin cut cube
p944
I3284
sVasian sesame oil
p945
I143
sVcarbonated
p946
I760
sVdeluxe american cheese
p947
I1400
sVsmall onion ring
p948
I4831
sVshallot thinly
p949
I4653
sVprovolone cheese
p950
I4218
sVsauerkraut dry
p951
I4566
sVitalian blend cheese
p952
I2748
sVlarge nectarine
p953
I3066
sVfreshly black pepper taste
p954
I2044
sVuncooked ditalini pasta
p955
I5475
sVloaf
p956
I3276
sVbell
p957
I343
sVmillet seed
p958
I3574
sVscallop
p959
I4581
sVhomemade low-sodium broth
p960
I2610
sVpre-washed
p961
I4156
sVdevil
p962
I1403
sVbunch baby spinach
p963
I597
sVvelveeta
p964
I5590
sVfat free sour cream
p965
I1612
sVbar chocolate confectioner
p966
I244
sVlarge marshmallow
p967
I3062
sVlow-sodium chicken broth
p968
I3357
sVfirm
p969
I1735
sVliquid jar jalapeno pepper
p970
I3268
sVbacon cut small piece
p971
I178
sVgreat
p972
I2317
sVfully luncheon meat spam
p973
I2156
sVfinely cheddar cheese
p974
I1674
sVhot water
p975
I2686
sVjalapeno chile
p976
I2778
sVfinely fresh ginger
p977
I1694
sVfinely red onion
p978
I1720
sVonion cut large chunk
p979
I3765
sVdill pickle
p980
I1429
sVsesame
p981
I4642
sVsalmon cut long strip
p982
I4521
sVasian chili paste sambal taste
p983
I138
sVcoarsely red onion
p984
I1064
sVlarge zucchini coarsely
p985
I3150
sVanchovy
p986
I75
sVcorn tortilla torn
p987
I1182
sVtriple
p988
I5421
sVlinguini pasta
p989
I3258
sVfresh onion
p990
I1984
sVkielbasa sausage
p991
I2930
sVground white pepper
p992
I2460
sVpiece cinnamon stick
p993
I3995
sVsoft goat cheese
p994
I4907
sVbrownie mix
p995
I572
sVblack pepper ground
p996
I383
sVlarge potato cut thick
p997
I3092
sVpaper-thin
p998
I3867
sVcold milk
p999
I1111
sVziti
p1000
I5811
sVfresh button mushroom
p1001
I1893
sVcucumber
p1002
I1325
sVpimento
p1003
I4009
sVthinly genoa salami
p1004
I5295
sVred pepper thinly
p1005
I4356
sVlarge red tomato
p1006
I3105
sVchicken meat
p1007
I890
sVcheddar
p1008
I825
sVlawry
p1009
I3155
sVjapanese sushi-style rice
p1010
I2802
sVextra-large
p1011
I1583
sVflounder fillet
p1012
I1782
sVanaheim chile
p1013
I71
sVspice mix
p1014
I4964
sVlarge sweet onion thinly
p1015
I3130
sVwell-beaten
p1016
I5656
sVthick egg bread challah
p1017
I5232
sVhorseradish
p1018
I2635
sVhead bibb lettuce leaf
p1019
I2527
sVlarge green bell large chunk
p1020
I3038
sVmaple sugar
p1021
I3403
sVdry penne pasta
p1022
I1493
sVfrozen banana
p1023
I2073
sVrigatoni
p1024
I4431
sVqueso
p1025
I4245
sVfreshly pepper
p1026
I2058
sVbavarian-style sauerkraut
p1027
I271
sVtowel
p1028
I5416
sVground buffalo
p1029
I2412
sVmaple syrup
p1030
I3404
sVfresh-ground black pepper
p1031
I2041
sVscape
p1032
I4582
sVwheat germ
p1033
I5666
sVlarge fresh peach
p1034
I3022
sVspring
p1035
I5004
sVbite-size
p1036
I363
sVbow tie pasta
p1037
I515
sVpalm
p1038
I3852
sVlarge chicken joint
p1039
I2994
sVpale
p1040
I3851
sVsheep-milk
p1041
I4662
sVcorn bread mix
p1042
I1165
sVoil deep frying
p1043
I3733
sVground pork
p1044
I2442
sVham steak
p1045
I2493
sVboneless skinless breast cut strip
p1046
I457
sVadobo goya
p1047
I15
sVitalian bread
p1048
I2749
sVbone rack lamb
p1049
I416
sVlarge leaf boston lettuce
p1050
I3056
sVcarob
p1051
I766
sVshiitake mushroom strip
p1052
I4681
sVloaf day-old french bread
p1053
I3292
sVrice flour
p1054
I4418
sVcenter bone-in pork chop
p1055
I814
sVlarge white mushroom stem
p1056
I3140
sVfrozen strawberry pureed
p1057
I2138
sVfresh corn kernel
p1058
I1912
sVbottle hot red pepper sauce
p1059
I492
sVblue cheese taste
p1060
I402
sVspam
p1061
I4948
sVbuttery cracker
p1062
I685
sVhawaiian
p1063
I2521
sVbuttery
p1064
I684
sVmushroom juice
p1065
I3658
sVsteak taste
p1066
I5054
sVitalian meatball
p1067
I2755
sVready-to-eat
p1068
I4296
sVjar peanut butter
p1069
I2841
sVloaf italian bread cut
p1070
I3308
sVfrozen light
p1071
I2105
sVzucchini cut strip
p1072
I5818
sVpizza dough
p1073
I4046
sVjulienne-sliced carrot
p1074
I2897
sVsmall shrimp
p1075
I4856
sVthin red blue fruit leather
p1076
I5270
sVtorn baby spinach leaf
p1077
I5401
sVbread cut diagonally
p1078
I532
sVcampbell 's condensed tomato soup
p1079
I712
sVbunch red white swiss chard
p1080
I633
sVcreole-style seasoning
p1081
I1269
sVfresh lemon juice
p1082
I1956
sVstiffly
p1083
I5065
sVbear-shaped
p1084
I283
sVmedium yellow bell
p1085
I3528
sVbeef steak cut thick strip
p1086
I324
sVtart
p1087
I5195
sVachiote
p1088
I3
sVjar maraschino cherry
p1089
I2832
sVdijon-style
p1090
I1424
sVhot italian turkey sausage cut
p1091
I2658
sVthin wheat cracker
p1092
I5276
sVfrozen southern-style hash potato pre-baked red potato
p1093
I2132
sVcherry liqueur
p1094
I855
sVthinly celery
p1095
I5285
sVprepared crisp taco shell
p1096
I4174
sVwafer
p1097
I5621
sVdigiorno romano cheese
p1098
I1419
sVinstant white chocolate pudding mix
p1099
I2736
sVbeverage
p1100
I353
sVground lamb
p1101
I2432
sVtomato garlic
p1102
I5362
sVmango salsa
p1103
I3396
sVuncooked white rice
p1104
I5508
sVlarge potato hamburger bun
p1105
I3093
sVmonterey
p1106
I3627
sVamish
p1107
I67
sVbaby
p1108
I155
sVred bell finely
p1109
I4316
sVbread crumb
p1110
I528
sVjuice kimchi
p1111
I2895
sVchicken wing drumettes
p1112
I900
sVwasabi paste
p1113
I5638
sVfresh garlic
p1114
I1927
sVmarinara sauce
p1115
I3417
sVdeli beef
p1116
I1390
sVlibby
p1117
I3214
sVfrench-fried onion
p1118
I1872
sVpork shoulder cut large piece
p1119
I4106
sVfresh blackberry
p1120
I1886
sVporter
p1121
I4123
sVlarge leek thick round
p1122
I3057
sVrack
p1123
I4254
sVthin red onion
p1124
I5271
sVlarge mcintosh apple
p1125
I3063
sVspaghetti
p1126
I4944
sVfish stock
p1127
I1746
sVfinely almond
p1128
I1669
sVsauerkraut
p1129
I4565
sVgala apple thinly
p1130
I2162
sVbar milk chocolate coarsely
p1131
I249
sVcocoa powder
p1132
I1075
sVleg
p1133
I3182
sVripe tomato
p1134
I4443
sVvinegar
p1135
I5609
sVjoint tip
p1136
I2891
sVbread torn bite size piece
p1137
I536
sVmedium beet
p1138
I3469
sVactive dry yeast
p1139
I7
sVfresh lemon
p1140
I1955
sVchili sauce
p1141
I922
sVcoarsely fresh basil
p1142
I1054
sVpopcorn
p1143
I4082
sVmussel
p1144
I3663
sVmedium ripe tomato
p1145
I3515
sVkernel corn
p1146
I2919
sVfluid bottle cola-flavored carbonated beverage
p1147
I1797
sVwhipping
p1148
I5678
sVboneless skinless bite-sized piece
p1149
I454
sVsoy sauce silver swan
p1150
I4941
sVfocaccia bread
p1151
I1834
sVorange-mango
p1152
I3800
sVfresh spinach torn
p1153
I2016
sVthick white bread cut cube
p1154
I5240
sVlarge banana cut
p1155
I2976
sVgherkin
p1156
I2217
sVnutmeg cream
p1157
I3717
sVlime juice taste
p1158
I3246
sVcreamy salad miracle whip
p1159
I1257
sVthin
p1160
I5253
sVwedge
p1161
I5652
sVapple jelly
p1162
I103
sVprocess
p1163
I4208
sVthick bacon cut piece
p1164
I5223
sVskin-on
p1165
I4728
sVleaf fresh basil cut sliver
p1166
I3161
sVcube colby-jack cheese
p1167
I1310
sVlarge fresh tomato coarsely
p1168
I3027
sVblack olive finely
p1169
I380
sVloaf hawaiian sweet bread thickly
p1170
I3306
sVcabbage
p1171
I691
sVred pepper flake taste
p1172
I4350
sVtomato
p1173
I5353
sVpocket
p1174
I4073
sVrhubarb
p1175
I4408
sVbeef eye roast
p1176
I301
sVjar sausage spaghetti
p1177
I2861
sVserrano
p1178
I4632
sVwatermelon
p1179
I5647
sVbroccoli floret
p1180
I559
sVoyster cracker
p1181
I3824
sVfreshly lemon zest
p1182
I2050
sVthigh
p1183
I5252
sVpillsbury crescent dinner roll
p1184
I4006
sVhot pepper sauce e tabasco
p1185
I2670
sVartichoke
p1186
I120
sVlarge romaine lettuce leaf
p1187
I3110
sVprepared pasta sauce
p1188
I4189
sVfrench roll hamburger bun
p1189
I1867
sVplain yogurt
p1190
I4063
sVoatnut
p1191
I3728
sVsweet red pepper
p1192
I5158
sVdry farfalle bow tie pasta
p1193
I1471
sVrelish
p1194
I4402
sVmirin japanese sweet wine
p1195
I3602
sVsun-dried
p1196
I5117
sVcannellini
p1197
I730
sVfluid bottle mountain dew
p1198
I1804
sVhomestyle beef gravy
p1199
I2613
sVsemi-soft
p1200
I4622
sVprepared soda bread
p1201
I4199
sVoil frying
p1202
I3734
sVcinnamon-flavored
p1203
I1010
sVsodium chicken broth
p1204
I4901
sVthin cheddar cheese cut strip
p1205
I5255
sVcannellini bean
p1206
I731
sVnewman
p1207
I3690
sVbottle ranch
p1208
I501
sVkiss
p1209
I2942
sVflorida avocado
p1210
I1780
sVcoriander
p1211
I1160
sVfluid jigger bourbon whiskey
p1212
I1816
sVliver pate
p1213
I3275
sVdry fiesta-style ranch mix
p1214
I1475
sVwhite chocolate
p1215
I5694
sVpearl sugar lars
p1216
I3926
sVfrozen strawberry
p1217
I2137
sVbulk spicy pork sausage
p1218
I593
sVbay
p1219
I272
sVlarge cremini mushroom
p1220
I2996
sVenglish muffin split
p1221
I1566
sVcheong
p1222
I851
sVlarge white onion ring
p1223
I3142
sVflank steak thinly
p1224
I1757
sVfrench bread cut piece
p1225
I1861
sVmexican bolillo roll
p1226
I3536
sVtiny shrimp
p1227
I5340
sVcorn flake
p1228
I1169
sVcountry style pork rib
p1229
I1207
sVlength
p1230
I3206
sVpudding
p1231
I4222
sVsprig fresh parsley
p1232
I4994
sVdeli turkey meat
p1233
I1393
sVfluid cognac
p1234
I1810
sVmedium head bok choy
p1235
I3491
sVhot italian sausage
p1236
I2655
sVbunch green onion cut length
p1237
I626
sVloaf italian bread
p1238
I3307
sVcorn muffin mix
p1239
I1174
sVgoya kidney bean
p1240
I2275
sVsmall red onion ring
p1241
I4847
sVpoblano chile finely
p1242
I4070
sVshrimp stock water
p1243
I4709
sVtostada
p1244
I5411
sVno-salt-added
p1245
I3692
sVegg room temperature
p1246
I1529
sVfresh yeast
p1247
I2039
sVfleischmann
p1248
I1776
sVconfectioner
p1249
I1140
sVtomato green chile pepper
p1250
I5366
sVthinly-julienned seedless cucumber
p1251
I5320
sVquick-cooking tapioca
p1252
I4252
sVsteel
p1253
I5055
sVred pepper strip
p1254
I4354
sVpiece fresh ginger root
p1255
I3998
sVmoist white cake mix
p1256
I3620
sVground coriander
p1257
I2423
sVpiece thick piece brioche
p1258
I4002
sVsausage cut moon
p1259
I4571
sVcucumber finely
p1260
I1328
sVdark red kidney bean
p1261
I1363
sVjar pepperoncini pepper mezzetta
p1262
I2845
sVred yellow cherry tomato
p1263
I4373
sVrice wine
p1264
I4426
sVspicy brown mustard gulden 's
p1265
I4967
sVmild italian sausage
p1266
I3556
sVpumpkin seed kernel taste
p1267
I4232
sVcoarsely chopped pecan
p1268
I1049
sVfideo
p1269
I1643
sVarugula lightly coarsely leaf large
p1270
I130
sVunpopped popcorn
p1271
I5518
sVboneless venison roast
p1272
I468
sVinstant potato
p1273
I2731
sVcantaloupe ball
p1274
I740
sVromaine
p1275
I4461
sVinstant beef bouillon granule
p1276
I2717
sVsegment
p1277
I4618
sVgreen apple
p1278
I2331
sVhot dog
p1279
I2647
sVlarge carrot coarsely
p1280
I2989
sVthinly deli turkey meat
p1281
I5291
sVsmall fresh tomato
p1282
I4802
sVbrine
p1283
I552
sVbag romaine lettuce torn
p1284
I203
sVsour cream topping
p1285
I4927
sVjigger
p1286
I2886
sVreduced-fat ranch hidden valley ranch light
p1287
I4387
sVjar
p1288
I2803
sVjam
p1289
I2797
sVmedium tomato
p1290
I3524
sVsmall celery stalk
p1291
I4792
sVsmall head red cabbage
p1292
I4816
sVsea salt taste
p1293
I4592
sVmolasses
p1294
I3621
sVbottle hot frank 's redhot
p1295
I490
sVsmoked salmon
p1296
I4881
sVenglish muffin cut dice
p1297
I1565
sVground cashew
p1298
I2414
sVreduced sodium black bean
p1299
I4376
sVtop sirloin steak cut thin strip
p1300
I5398
sVgreen ripe mango cut strip
p1301
I2388
sVmayonnaise food
p1302
I3442
sVcelery stalk
p1303
I811
sVpacket
p1304
I3833
sVpacked
p1305
I3831
sVportobello mushroom stem
p1306
I4128
sVsun-dried tomato oregano salad
p1307
I5121
sVmembrane
p1308
I3532
sVgrainy mustard
p1309
I2296
sVbottle balsamic vinaigrette salad
p1310
I477
sVfirm white bread
p1311
I1740
sVbutter-flavored
p1312
I662
sVthyme sprig
p1313
I5330
sVbuttermilk mix
p1314
I672
sVnon-dairy coffee creamer
p1315
I3695
sVpuff
p1316
I4223
sVcut-up
p1317
I1348
sVnonfat milk
p1318
I3707
sVca
p1319
I690
sVground beef sirloin
p1320
I2407
sVarugula
p1321
I128
sVoregano
p1322
I3806
sVyellow mini potato
p1323
I5788
sVchicken wing section
p1324
I901
sVsweet pickle relish heinz
p1325
I5152
sVlean boneless beef steak cut cube
p1326
I3171
sVfrozen chicken wing
p1327
I2086
sVciabatta roll
p1328
I993
sVstrawberry-flavored
p1329
I5085
sVlump lobster meat
p1330
I3372
sVdark sweet cherry
p1331
I1368
sVunpopped popcorn kernel
p1332
I5519
sVbacon crosswise piece
p1333
I174
sVspanish manzanilla olive
p1334
I4952
sVlight mayonnaise
p1335
I3227
sVlarge potato coarsely
p1336
I3089
sVbeef consomme
p1337
I298
sVlowfat milk
p1338
I3365
sVleaf romaine lettuce
p1339
I3167
sVstuffing
p1340
I5098
sVmarinara-style
p1341
I3418
sVripe
p1342
I4435
sVgarlic-flavored extra-virgin olive oil
p1343
I2202
sVfinely shredded mozzarella cheese
p1344
I1726
sVeggplant cut lengthwise thick
p1345
I1544
sVcorn flake cereal
p1346
I1170
sVhot pepper sauce tabasco taste
p1347
I2673
sVcheese stick
p1348
I846
sVsliced seedless grape
p1349
I4772
sVball
p1350
I218
sVsteak halibut
p1351
I5049
sVjar pizza sauce
p1352
I2850
sVartificial sweetener
p1353
I127
sVbroccoli
p1354
I556
sVbutter flavor crisco stick
p1355
I653
sVthick bacon
p1356
I5221
sVuncooked pasta
p1357
I5498
sVheart romaine lettuce cut
p1358
I2560
sVbrine olive jar
p1359
I553
sVflesh
p1360
I1777
sVpace thick chunky salsa
p1361
I3829
sVhard-cooked egg finely
p1362
I2512
sVleaf cabbage
p1363
I3158
sVsweet sour sauce
p1364
I5159
sVhigh-quality semisweet chocolate piece
p1365
I2592
sVteriyaki
p1366
I5213
sVfuji
p1367
I2151
sVspaghetti lengthwise
p1368
I4945
sVcedar
p1369
I804
sVjar pineapple preserve
p1370
I2849
sVred wine vinegar
p1371
I4371
sVspinach torn
p1372
I4975
sVcrisp
p1373
I1279
sVcinnamon hot candy
p1374
I1007
sVonion
p1375
I3760
sVbottle pimento
p1376
I499
sVflaky-style
p1377
I1752
sVfresh mozzarella cheese
p1378
I1971
sVmiami-style sazon sazon completa
p1379
I3548
sVsourdough
p1380
I4929
sVlumpia
p1381
I3373
sVjar sauerkraut
p1382
I2859
sVfresh poblano chilies
p1383
I2000
sVcubed watermelon
p1384
I1324
sVloaf sourdough bread
p1385
I3312
sVcollard leaf finely
p1386
I1122
sVswiss cheese piece
p1387
I5168
sVoil-packed tuna
p1388
I3740
sVcrab meat fresh
p1389
I1213
sVpita bread pocket
p1390
I4038
sVnacho cheese-flavored tortilla chip
p1391
I3671
sVthinly potato
p1392
I5307
sVsharp cheddar cheese
p1393
I4657
sVsmall vidalia sweet onion
p1394
I4867
sVfluid tomato-based chili sauce
p1395
I1826
sVserrano thinly
p1396
I4640
sVred onion thickly
p1397
I4344
sVchinese sweet pork sausage lup cheong
p1398
I929
sVroast-ready
p1399
I4451
sVinstant yeast
p1400
I2737
sVditalini small pasta
p1401
I1444
sVlarge onion piece
p1402
I3075
sVsister
p1403
I4721
sVfresh hot chile pepper
p1404
I1943
sVskin-on salmon fillet
p1405
I4729
sVcherry tomato sun gold
p1406
I859
sVgreen chile
p1407
I2352
sVmonosodium
p1408
I3623
sVfat-free ranch
p1409
I1622
sVgarlic rosemary focaccia bread
p1410
I2190
sVcarrot piece
p1411
I776
sVlime zest
p1412
I3251
sVmixed salad green arugula
p1413
I3615
sVwarm milk degree degree c
p1414
I5632
sVpacket instant apple cinnamon oatmeal single serving size
p1415
I3841
sVchocolate sandwich cooky
p1416
I959
sVtorn salad green
p1417
I5406
sVhoisin
p1418
I2602
sVinstant oatmeal
p1419
I2729
sVall-purpose flour dredging
p1420
I44
sVground ginger taste
p1421
I2429
sVfresh lime juice
p1422
I1961
sVfrench baguette cut lengthwise
p1423
I1852
sVtip cut joint
p1424
I5342
sVcount
p1425
I1201
sVsmooth
p1426
I4886
sVcream cheese cut cube
p1427
I1234
sVirish
p1428
I2738
sVsirloin
p1429
I4718
sVleaf red leaf lettuce
p1430
I3166
sVuncooked instant white rice
p1431
I5483
sVjalapeno pepper finely
p1432
I2785
sVsambal
p1433
I4549
sVlarge egg
p1434
I3006
sVcherry pie filling choice
p1435
I857
sVvariety
p1436
I5571
sVcavender
p1437
I798
sVfrozen meatball
p1438
I2107
sVwarm maple syrup taste
p1439
I5630
sVsesame oil taste
p1440
I4644
sVground allspice
p1441
I2402
sVfresh parsley taste
p1442
I1991
sVseedless green grape
p1443
I4614
sVcircular pretzel
p1444
I1014
sVlightly almond
p1445
I3235
sVlow-fat buttermilk
p1446
I3344
sVthick green bell pepper
p1447
I5234
sValmond meal
p1448
I53
sVuncooked lean ground beef
p1449
I5487
sVvanilla low-fat yogurt
p1450
I5558
sVfrozen green bean
p1451
I2098
sVwarm milk
p1452
I5631
sVunflavored
p1453
I5510
sVmild chili powder
p1454
I3553
sVground cardamom
p1455
I2413
sVrosemary leaf
p1456
I4475
sVtilapia chunk
p1457
I5336
sVtomato cut dice
p1458
I5359
sVpimento-stuffed
p1459
I4010
sVasian stir-fry sauce
p1460
I144
sVpocket pita
p1461
I4074
sVmedium red bell thinly
p1462
I3510
sVheavy cream
p1463
I2564
sVbarley
p1464
I257
sVthinly bacon
p1465
I5282
sVromaine lettuce torn bite-size piece
p1466
I4465
sVlarge green bell pepper finely
p1467
I3041
sVsquare unsweetened chocolate
p1468
I5020
sVpacket dry spaghetti mix
p1469
I3837
sVfinely fresh flat-leaf parsley
p1470
I1692
sVmccormick ginger ground
p1471
I3452
sVstrawberry jam
p1472
I5077
sVjar tomato pasta sauce
p1473
I2868
sVcream chicken soup
p1474
I1238
sVemmentaler cheese
p1475
I1555
sVpoppy
p1476
I4083
sVcelery leaf
p1477
I806
sVchicken-flavored cracker
p1478
I904
sVgreen onion taste
p1479
I2373
sVpenne pasta
p1480
I3939
sVblue nectar
p1481
I404
sVchex
p1482
I865
sVdark chocolate cake mix
p1483
I1359
sValmond coarsely
p1484
I50
sVbag spinach
p1485
I204
sVjar caramel
p1486
I2813
sVsprig fresh tarragon
p1487
I4999
sVcheddar monterey cheese blend
p1488
I827
sVgoya chick pea
p1489
I2269
sVplain fat-free yogurt
p1490
I4053
sVtart cherry
p1491
I5197
sVgrape tomato
p1492
I2311
sVokra finely
p1493
I3742
sVhoney mustard salad
p1494
I2622
sVcrunch
p1495
I1299
sVbuttermilk biscuit dough
p1496
I671
sVreduced-fat sharp cheddar cheese
p1497
I4388
sVfresh peach thin wedge
p1498
I1995
sVfreshly lime juice
p1499
I2051
sVjalapeno pepper taste juice
p1500
I2795
sVmezzetta
p1501
I3546
sVsmoke
p1502
I4876
sVfluid worcestershire sauce
p1503
I1831
sVdiameter
p1504
I1410
sVtotal
p1505
I5414
sVsprig fresh parsley garnish
p1506
I4995
sVbeef top sirloin thinly
p1507
I335
sVblueberry
p1508
I406
sVear freshly corn
p1509
I1519
sVorange liqueur
p1510
I3789
sVbaby pea
p1511
I163
sVthin chicken breast cutlet
p1512
I5256
sVsmall banana
p1513
I4785
sVturkey meat dark meat mixed
p1514
I5449
sVfirm pear cut dice
p1515
I1736
sVelbow
p1516
I1551
sVthin-sliced
p1517
I5277
sVice cream sandwich
p1518
I2698
sVbaby corn
p1519
I160
sVextra-firm tofu
p1520
I1582
sVgreen bell cut square
p1521
I2337
sVhot pepper frank 's redhot taste
p1522
I2666
sVvanilla extract
p1523
I5553
sVlarge head cabbage small wedge
p1524
I3052
sVthinly fresh ginger root
p1525
I5293
sVpastry double-crust pie
p1526
I3899
sVfudge
p1527
I2150
sVpizza
p1528
I4042
sVbalsamic vinaigrette
p1529
I221
sVpina colada mix
p1530
I4015
sVoil-cured
p1531
I3735
sVthousand island
p1532
I5323
sVgarbanzo bean liquid
p1533
I2169
sVimitation crabmeat
p1534
I2707
sVlarge flaky layer biscuit
p1535
I3017
sVchopped spanish onion
p1536
I975
sVskinless boneless meat bite-size piece
p1537
I4754
sVskinless boneless breast thin
p1538
I4749
sVgreek
p1539
I2319
sVlukewarm milk
p1540
I3368
sVpepperoncini pepper
p1541
I3958
sVgreen
p1542
I2330
sVground hazelnut
p1543
I2430
sVfluid chicken broth
p1544
I1809
sVlarge firm banana
p1545
I3016
sVmuffin
p1546
I3647
sVskinless boneless breast strip
p1547
I4745
sVlarge onion cut chunky wedge
p1548
I3069
sVrusset potato
p1549
I4498
sVflat leaf parsley
p1550
I1760
sVpeanut garnish
p1551
I3915
sVsaigon
p1552
I4513
sVlarge finely onion
p1553
I3015
sVraspberry jam
p1554
I4280
sVavocado
p1555
I149
sVsavory
p1556
I4576
sVcarton
p1557
I782
sVcoffee
p1558
I1088
sVfresh mushroom thinly
p1559
I1981
sVbunch green onion finely
p1560
I627
sVbread
p1561
I526
sVfresh-ground
p1562
I2040
sVcandiquick
p1563
I718
sVbutter cut small piece
p1564
I651
sVdry crab boil zatarain 's crab shrimp boil
p1565
I1467
sVflavor fruit jelly
p1566
I1768
sVhoney garlic barbecue sauce
p1567
I2617
sVcornbread
p1568
I1184
sVallspice
p1569
I47
sVpeanut oil frying
p1570
I3917
sVyellow cake mix batter
p1571
I5782
sVmazola vegetable oil
p1572
I3449
sVprawn
p1573
I4150
sVboneless beef chuck roast
p1574
I433
sVfresh blueberry
p1575
I1887
sVinstant sugar-free vanilla mix
p1576
I2734
sVmenthe
p1577
I3533
sVground black pepper
p1578
I2408
sVegg beaten
p1579
I1522
sVswiss cheese
p1580
I5165
sVpotato starch
p1581
I4141
sVstrawberry-banana yogurt
p1582
I5084
sVfrozen orange juice concentrate
p1583
I2113
sVbuckwheat flour
p1584
I576
sVlollipop
p1585
I3327
sVegg yolk
p1586
I1539
sVraisin
p1587
I4258
sVfresh pineapple cut ring
p1588
I1999
sVegg white slightly
p1589
I1537
sVorange zest
p1590
I3797
sVchile-garlic sauce sriracha
p1591
I913
sVuncooked long-grain white rice
p1592
I5492
sVgreen bell top
p1593
I2348
sVchopped
p1594
I969
sVrecipe pastry double crust deep dish pie
p1595
I4303
sVmaple syrup taste
p1596
I3406
sVcenter-cut bacon
p1597
I816
sVdelicious
p1598
I1398
sVthick
p1599
I5220
sVgreen onion green part
p1600
I2371
sVsharp cheddar cheese taste
p1601
I4658
sVwooden toothpick
p1602
I5761
sVfully-cooked spiral cut ham
p1603
I2159
sVtube gel
p1604
I5429
sVcarrot cut thin matchstick
p1605
I774
sVkiwi
p1606
I2944
sVcoarsely cracked black pepper
p1607
I1052
sVluncheon
p1608
I3376
sVloaf texas thick-sliced bread cut cube
p1609
I3315
sVcereal
p1610
I817
sVciabatta bread
p1611
I992
sVpraline
p1612
I4148
sVmochiko
p1613
I3617
sVthin ham
p1614
I5264
sViron
p1615
I2743
sVyukon gold potato
p1616
I5804
sVthinly bell color
p1617
I5284
sVcanadian bacon
p1618
I714
sVfrank 's red hot
p1619
I1846
sVshredded mexican cheese blend
p1620
I4701
sVsnow crab
p1621
I4891
sVfresh sweet white corn cut cob
p1622
I2023
sVfresh ginger
p1623
I1928
sVbulk mild italian sausage
p1624
I590
sVloaf french bread cut cube
p1625
I3298
sVolive oil cooking spray pam
p1626
I3752
sVcarrot cut thick strip
p1627
I773
sVherbes
p1628
I2583
sVvenison backstrap cut chunk
p1629
I5593
sVfinely fresh dill
p1630
I1691
sVmini candy-coated chocolate
p1631
I3580
sVgravy
p1632
I2315
sVrecipe pastry double-crust pie
p1633
I4305
sVfinely shredded cabbage
p1634
I1724
sVbunch cilantro stem leaf
p1635
I604
sVleek white pale green part
p1636
I3180
sVcrosswise
p1637
I1295
sVsun
p1638
I5116
sVjumbo pasta shell
p1639
I2902
sVground ginger
p1640
I2428
sVreserve
p1641
I4404
sVdeli-style turkey
p1642
I1397
sVmonterey jack cheese
p1643
I3628
sVtoast
p1644
I5344
sVrestaurant-style
p1645
I4405
sVwhite chocolate broken
p1646
I5696
sVdark rye bread
p1647
I1366
sVde
p1648
I1379
sVcombinbation
p1649
I1130
sVwatson
p1650
I5649
sVpotato cut
p1651
I4134
sVtomato clam juice cocktail clamato
p1652
I5357
sVchunky salsa
p1653
I989
sVraspberry vinaigrette salad
p1654
I4283
sVhot dog bun
p1655
I2648
sVmixed salad green
p1656
I3614
sVfinely chipotle pepper
p1657
I1678
sVuncooked shrimp
p1658
I5505
sVsteak
p1659
I5048
sVlarge tomato bite-size piece
p1660
I3135
sVfrozen corn
p1661
I2087
sVfrozen egg noodle
p1662
I2095
sVred maraschino cherry
p1663
I4335
sVskinless boneless breast cut piece
p1664
I4739
sVeggplant thinly
p1665
I1547
sVjumbo black olive
p1666
I2899
sVenvelope taco
p1667
I1576
sVanchovy paste
p1668
I78
sVfresh red chile pepper finely
p1669
I2003
sVpastry flour
p1670
I3901
sVmcintosh
p1671
I3455
sVfinely shredded iceberg lettuce
p1672
I1725
sVjar ring
p1673
I2857
sVfat-free sour cream
p1674
I1624
sVfeta cheese
p1675
I1635
sVfrench italian-style bread
p1676
I1864
sVkitchen
p1677
I2943
sVfillet halibut
p1678
I1652
sVtoasted wheat germ
p1679
I5347
sVfresh thyme leaf
p1680
I2031
sVfat-trimmed pork tenderloin
p1681
I1626
sVhummus
p1682
I2690
sVcob
p1683
I1069
sVcod
p1684
I1084
sVlarge shrimp tail
p1685
I3116
sVjar horseradish
p1686
I2827
sVcoarse salt
p1687
I1034
sVfage
p1688
I1601
sVbran
p1689
I520
sVolive oil
p1690
I3748
sVtough
p1691
I5415
sVspear
p1692
I4957
sVtony
p1693
I5392
sVground paprika
p1694
I2438
sVyellow corn
p1695
I5784
sVthick challah bread
p1696
I5226
sVbar chocolate toffee bar
p1697
I247
sVlarge pita round
p1698
I3083
sVbone-in
p1699
I417
sVfluid teriyaki sauce
p1700
I1824
sVpicante
p1701
I3977
sVcoarsely macadamia nut
p1702
I1062
sVsandwich-style
p1703
I4557
sVmilk powder
p1704
I3570
sVbiscuit dough
p1705
I357
sVgrape cherry tomato
p1706
I2308
sVlump crab meat
p1707
I3371
sVhead lettuce
p1708
I2550
sVegg bread
p1709
I1524
sVcabbage leaf
p1710
I692
sVhoagie roll torn piece
p1711
I2601
sVbarbeque sauce amount taste
p1712
I254
sVpita bread
p1713
I4037
sVjalapeno chile seed
p1714
I2782
sVskinless boneless breast chunk
p1715
I4735
sVmarjoram leaf
p1716
I3420
sVfiesta-style
p1717
I1646
sVminiature semi-sweet chocolate chip
p1718
I3595
sVsmall curd cottage cheese
p1719
I4796
sValmond vegetable oil
p1720
I57
sVwheel
p1721
I5673
sVchicken fish stock
p1722
I886
sVbite-size piece
p1723
I366
sVbulk chorizo sausage
p1724
I587
sVloaf fresh italian bread
p1725
I3303
sVsmall head cabbage cut wedge
p1726
I4812
sVbanana chunk
p1727
I231
sVpearlini
p1728
I3927
sVred bell thinly
p1729
I4319
sVraspberry puree
p1730
I4281
sVskinless boneless bite-size piece
p1731
I4731
sVsmall green bell pepper finely
p1732
I4804
sVpicante sauce
p1733
I3978
sVpimento-stuffed olive
p1734
I4013
sVkale
p1735
I2909
sVsouthern-style flaky biscuit pillsbury grand
p1736
I4934
sVchile sauce
p1737
I911
sValfredo sauce
p1738
I33
sVthinly pepper
p1739
I5304
sVcognac
p1740
I1092
sVmccormick nutmeg ground
p1741
I3453
sVsmall onion thinly
p1742
I4832
sVshoulder
p1743
I4690
sVmayo
p1744
I3440
sVlemon peel
p1745
I3195
sVcapn
p1746
I749
sVshredded swiss cheese
p1747
I4704
sVbutterball maple honey turkey
p1748
I668
sVcholesterol-free
p1749
I966
sVkorean
p1750
I2946
sVoatnut bread
p1751
I3729
sVflavoring
p1752
I1769
sVhominy
p1753
I2614
sVfluid jigger espresso
p1754
I1817
sVrecipe pastry double crust pie
p1755
I4304
sVlarge rom plum tomato
p1756
I3109
sVfinely yam
p1757
I1733
sVkraft mayo real mayonnaise
p1758
I2955
sVserrano chile finely
p1759
I4634
sVlumpia wrapper
p1760
I3374
sVtaco sauce
p1761
I5179
sVbrown sugar taste
p1762
I570
sVpurple
p1763
I4240
sVboneless turkey breast
p1764
I467
sVbeef frank
p1765
I306
sVgrape jelly
p1766
I2309
sVlong cucumber
p1767
I3330
sVjar bell
p1768
I2810
sVwedge lemon garnish
p1769
I5655
sVfresh shiitake mushroom
p1770
I2011
sVpeel
p1771
I3936
sVboneless skinless thigh cut cube
p1772
I465
sVcaper taste
p1773
I748
sVbone-in chicken breast
p1774
I418
sVtomato mild green chilies
p1775
I5373
sVinstant coffee granule hot water
p1776
I2723
sVblack bean
p1777
I373
sVthick wheat bread
p1778
I5238
sVthick-cut cod loin
p1779
I5245
sVloin
p1780
I3326
sVnatural peanut butter
p1781
I3677
sVcrisp taco shell
p1782
I1281
sVwax
p1783
I5650
sVbiscuit mix bisquick
p1784
I359
sVskinless boneless chicken breast
p1785
I4752
sVdry mustard
p1786
I1487
sVchicken bouillon granule
p1787
I874
sVvegetable oil deep-frying
p1788
I5580
sVhigh-quality
p1789
I2591
sVlow-fat greek-style yogurt fage
p1790
I3347
sVcarrot strip
p1791
I778
sVcrystal
p1792
I1305
sVplain non-fat yogurt
p1793
I4057
sVrotisserie
p1794
I4481
sVdijon-style mustard
p1795
I1425
sVbaguette
p1796
I208
sVfinely jalapeno chile pepper
p1797
I1710
sVinstant vanilla mix
p1798
I2735
sVgreen onion white light green part thinly
p1799
I2379
sVdinner roll split
p1800
I1438
sVnavy bean
p1801
I3682
sVbreakfast sausage
p1802
I541
sVcaraway
p1803
I756
sVfresh mango
p1804
I1965
sVmission flour tortilla
p1805
I3604
sVginger garlic paste
p1806
I2225
sVfrozen mixed berry
p1807
I2108
sVdark chocolate chip
p1808
I1360
sVwhite mushroom coarsely
p1809
I5705
sVsmall fresh jalapeno pepper
p1810
I4800
sVlarge mushroom cut
p1811
I3065
sVcheese cut long
p1812
I838
sVgrape
p1813
I2307
sVcold water cover
p1814
I1114
sVflounder
p1815
I1781
sVsmall apple
p1816
I4782
sVcouscous
p1817
I1208
sVdeep dish pie crust
p1818
I1386
sVbrown
p1819
I564
sVbrownie
p1820
I571
sVvegan
p1821
I5573
sVgarlic salt
p1822
I2192
sVcubed swiss cheese
p1823
I1322
sVsprig fresh sage
p1824
I4998
sVunbleached all-purpose flour
p1825
I5464
sVwhite potato
p1826
I5712
sVgum
p1827
I2470
sVsea salt freshly ground black pepper taste
p1828
I4590
sViceberg lettuce leaf
p1829
I2703
sVtriple sec liqueur
p1830
I5422
sVfinely fresh basil
p1831
I1689
sVfresh cherry
p1832
I1896
sVfrozen prepared cake cut
p1833
I2123
sVmango peach nectarine
p1834
I3395
sVuncooked large shrimp
p1835
I5485
sVtartar
p1836
I5199
sVcanola oil pan-frying
p1837
I738
sVpersimmon pulp
p1838
I3964
sVmuscovado
p1839
I3655
sVhot pepper sauce tabasco
p1840
I2672
sVcoarsely buttery cracker
p1841
I1047
sVegg noodle
p1842
I1527
sVvinegar-based
p1843
I5611
sVsieve
p1844
I4711
sVpeeler
p1845
I3937
sVchocolate graham cracker
p1846
I952
sVcremini mushroom taste
p1847
I1263
sVcarrot cut piece
p1848
I772
sVbottle chile sauce
p1849
I486
sVmontreal
p1850
I3631
sVhollandaise
p1851
I2604
sVhead cauliflower cut floret
p1852
I2536
sVfrozen mango piece
p1853
I2106
sVmarket
p1854
I3421
sVsodium soy sauce
p1855
I4903
sVstick cheese
p1856
I5064
sVgreen paste food
p1857
I2382
sVpepper-jack
p1858
I3944
sVclub
p1859
I1025
sVenvelope
p1860
I1568
sVcilantro leaf garnish
p1861
I1001
sVsalt ground black pepper
p1862
I4538
sVunbleached flour
p1863
I5465
sVfinely ham
p1864
I1708
sVbeef sirloin steak cut cube
p1865
I322
sVcap
p1866
I741
sVprepared coleslaw
p1867
I4173
sVmatchstick-cut
p1868
I3435
sVheart
p1869
I2557
sVfrozen okra
p1870
I2112
sVchip
p1871
I930
sVtomato green chile pepper ro tel
p1872
I5368
sVchia
p1873
I866
sVolive oil brushing
p1874
I3749
sVbow-tie pasta farfalle
p1875
I517
sVlarge bone-in skin-on chicken thigh
p1876
I2985
sVflank
p1877
I1754
sVcornflakes cereal
p1878
I1188
sVunsalted butter
p1879
I5522
sVproduct
p1880
I4211
sVcandy cane
p1881
I720
sVsmall ripe banana finely
p1882
I4851
sVpastina
p1883
I3895
sVcrepe
p1884
I1270
sVpizza sauce
p1885
I4047
sVbutter-margarine blend smart balance
p1886
I665
sVcorona
p1887
I1194
sVsquare white chocolate
p1888
I5021
sVbeef brisket spice packet
p1889
I293
sVpoppyseed salad taste
p1890
I4089
sVtahini
p1891
I5181
sVgraham cracker
p1892
I2286
sVcod portion
p1893
I1087
sVdry italian-style salad mix
p1894
I1479
sVserving
p1895
I4641
sVcampbell 's condensed cream chicken soup regular fat free healthy request
p1896
I707
sVripe banana
p1897
I4437
sVcold
p1898
I1102
sVcole
p1899
I1116
sVrice vermicelli noodle
p1900
I4423
sVcurly
p1901
I1337
sVlamb chop
p1902
I2965
sVlemon pepper seasoning
p1903
I3197
sVcoffee liqueur
p1904
I1089
sVgizzard
p1905
I2231
sVinstant cream wheat
p1906
I2725
sVskinless boneless bite-sized chunk
p1907
I4732
sVcane sugar
p1908
I729
sVcenter-cut
p1909
I815
sVdevil 's food cake mix pudding
p1910
I1405
sVsweetener
p1911
I5163
sVspear asparagus cut piece
p1912
I4958
sVel
p1913
I1549
sVfrozen vegetable
p1914
I2142
sVtart green apple
p1915
I5198
sVwrap
p1916
I5765
sVherb-seasoned dry bread mix
p1917
I2580
sVroughly cilantro
p1918
I4487
sVrotini pasta
p1919
I4480
sVwhite mushroom
p1920
I5704
sVeggplant cut
p1921
I1543
sVleaf fresh basil
p1922
I3159
sVscoop vanilla ice cream
p1923
I4585
sVlarge onion cut ring
p1924
I3070
sVraisin cranberry
p1925
I4260
sVorange-peach-mango
p1926
I3802
sVargo
p1927
I117
sVcarb
p1928
I758
sVfresh jalapeno pepper
p1929
I1949
sVdeli-style
p1930
I1396
sVpumpernikel
p1931
I4227
sVbaked pastry shell
p1932
I213
sVpico gallo salsa
p1933
I3988
sVlowfat cream cheese
p1934
I3364
sVcreole-style
p1935
I1268
sVunsalted soda cracker
p1936
I5530
sVbeef rib-eye steak cut thick
p1937
I313
sVboneless pork loin chop
p1938
I442
sVboneless beef bottom roast chuck pot roast
p1939
I431
sVcherry jell-o mix
p1940
I853
sVfresh crab meat
p1941
I1914
sVjar strawberry glaze
p1942
I2864
sVraw shrimp count
p1943
I4293
sVloaf french bread lengthwise
p1944
I3301
sVrind
p1945
I4433
sVring
p1946
I4434
sVprepared horseradish
p1947
I4183
sVear fresh corn husk silk
p1948
I1517
sVsize
p1949
I4723
sVfluid bottle lager-style beer
p1950
I1801
sVlemon-lime beverage
p1951
I3205
sValmond milk
p1952
I54
sVfresh sage taste
p1953
I2009
sVgreen bean
p1954
I2333
sVblack olive horizontally
p1955
I381
sVunbaked pie shell
p1956
I5461
sVripe fresh tomato
p1957
I4439
sVgiardiniera italian vegetable
p1958
I2219
sVvermicelli
p1959
I5597
sVcolby-monterey
p1960
I1100
sVegg white beaten foamy
p1961
I1535
sVfrozen chicken section
p1962
I2085
sVblack sesame seed
p1963
I387
sVthai
p1964
I5218
sVsriracha taste
p1965
I5028
sVsolid white tuna water
p1966
I4914
sVhigh-quality white chocolate broken piece
p1967
I2593
sVunsweetened crunchy peanut butter
p1968
I5540
sVcarrot round
p1969
I777
sVreduced-fat mayonnaise
p1970
I4385
sVnutritional yeast
p1971
I3719
sVcoarsely blue cheese
p1972
I1046
sVangel
p1973
I85
sVslaw
p1974
I4763
sVsmall green onion
p1975
I4806
sVbreakfast
p1976
I540
sVcoarse garlic salt
p1977
I1030
sVslab
p1978
I4761
sVbeef stew meat
p1979
I327
sVfresh strawberry
p1980
I2019
sVfresh rhubarb
p1981
I2005
sVgoya tomato sauce
p1982
I2281
sVbutter pecan cake mix
p1983
I657
sVtopping
p1984
I5399
sVgreek-style
p1985
I2329
sVmexican-style corn
p1986
I3544
sVsea bass
p1987
I4588
sVsweet gherkin pickle
p1988
I5141
sVsauteed
p1989
I4573
sVfrench baguette diagonal
p1990
I1855
sVfat-free plain yogurt
p1991
I1621
sVinstant banana mix
p1992
I2716
sVheart palm
p1993
I2559
sVpurple paste food
p1994
I4241
sVgreek olive coarsely
p1995
I2323
sVgerman
p1996
I2212
sVbag baby spinach leaf
p1997
I191
sVlemon cake mix pudding
p1998
I3186
sVground
p1999
I2401
sVhominy drain
p2000
I2615
sVslider-size burger bun cut horizontally
p2001
I4777
sVcornflake crumb
p2002
I1186
sVserrano pepper thinly
p2003
I4639
sVbanana cut piece frozen
p2004
I236
sVcubed potato
p2005
I1320
sVtoffee
p2006
I5348
sVpastrami
p2007
I3896
sVfat free italian-style dressing
p2008
I1611
sVtorn spinach leaf
p2009
I5407
sVherb-seasoned mix crumb
p2010
I2581
sVplain frozen waffle
p2011
I4054
sVfinely ground almond
p2012
I1705
sVfinely chopped seedless cucumber
p2013
I1683
sVleather
p2014
I3177
sVcauliflower floret
p2015
I795
sVuncooked wild rice
p2016
I5509
sVsashimi grade tuna steak
p2017
I4562
sVcustard powder
p2018
I1345
sVsucralose
p2019
I5103
sVlarge mushroom
p2020
I3064
sVsport
p2021
I4983
sVhoneydew
p2022
I2630
sVranch-style bean
p2023
I4269
sVcrawfish
p2024
I1226
sVprepared basil pesto taste
p2025
I4165
sVbutterscotch-flavored
p2026
I680
sVglaze
p2027
I2232
sVthinly hard salami
p2028
I5299
sVfresh basil stem
p2029
I1884
sVwhipped
p2030
I5676
sVlime wedge
p2031
I3249
sVspanish peanut
p2032
I4955
sVfilet mignon steak
p2033
I1649
sVbeef flank steak
p2034
I303
sVfresh mussel
p2035
I1983
sVhot pepper sauce amount taste
p2036
I2669
sVpureed
p2037
I4238
sVchipotle chile adobo finely
p2038
I932
sVcampbell 's condensed cream mushroom soup regular fat free
p2039
I708
sVmustard powder
p2040
I3666
sVmexican-style
p2041
I3540
sVuncooked barley
p2042
I5472
sVziti pasta
p2043
I5812
sVsleeve buttery cracker ritz
p2044
I4765
sVdiced cucumber
p2045
I1414
sVfactory-washed baby spinach leaf
p2046
I1600
sVsuperfine
p2047
I5131
sVhead cabbage coarsely
p2048
I2532
sVshort-grain
p2049
I4686
sVsopressata hard salami bite-size piece
p2050
I4916
sVirish cream liqueur
p2051
I2741
sVbaby pork rib
p2052
I164
sVfresh flat-leaf parsley
p2053
I1921
sVcucumber thick
p2054
I1331
sVbay tm
p2055
I276
sVcrumb
p2056
I1297
sVfat-free mayonnaise kraft
p2057
I1620
sVsorghum
p2058
I4917
sVorange food color
p2059
I3787
sVhot salsa
p2060
I2679
sVstrong coffee cold
p2061
I5094
sVbacon direction
p2062
I181
sVbite-size pretzel twist
p2063
I368
sVtart apple
p2064
I5196
sVfrozen vegetarian bacon strip
p2065
I2143
sVground cinnamon
p2066
I2420
sVlite
p2067
I3272
sVlarge green bell thickly
p2068
I3044
sVyellow onion cut wedge
p2069
I5791
sVonion cut strip
p2070
I3767
sVlager-style
p2071
I2963
sVpotato cut equal wedge
p2072
I4137
sVstar anise pod
p2073
I5044
sVfruit
p2074
I2144
sVfresh ground spicy pork sausage
p2075
I1941
sVfresh thick chinese wheat noodle
p2076
I2029
sVsprig parsley
p2077
I5002
sVirish cheese dubliner
p2078
I2740
sVchili powder taste
p2079
I921
sVshortbread
p2080
I4687
sVfrozen pie ready bake
p2081
I2119
sVvegetable oil deep frying
p2082
I5579
sVsmall potato cut
p2083
I4841
sVhot red pepper flake
p2084
I2678
sVbamboo skewer water minute
p2085
I229
sVprepared horseradish mustard
p2086
I4184
sVbiscuit mix
p2087
I358
sVfinely chopped pecan
p2088
I1682
sVwhite sugar taste
p2089
I5719
sVunflavored gelatin
p2090
I5511
sVprepared pesto sauce
p2091
I4193
sVreal
p2092
I4298
sVsplenda
p2093
I4977
sVmixed frozen
p2094
I3611
sVred apple thinly
p2095
I4310
sVregular flavor jimmy dean pork sausage
p2096
I4399
sVminiature chocolate chip
p2097
I3591
sVfajita
p2098
I1602
sVmiracle
p2099
I3599
sVroll
p2100
I4456
sVblackberry
p2101
I391
sVkikkoman stir-fry sauce
p2102
I2937
sVcurry powder taste
p2103
I1343
sVcoarse sugar
p2104
I1040
sVjar yellow mustard
p2105
I2870
sVthick bread
p2106
I5225
sVkaiser
p2107
I2905
sVvinegar-based hot pepper sauce
p2108
I5612
sVfinely peanut
p2109
I1716
sVwheat
p2110
I5659
sVequivalent
p2111
I1578
sVflaky sea salt maldon garnish
p2112
I1751
sVbalsamic vinegar
p2113
I225
sVnon-fat curry
p2114
I3699
sVcucumber lengthwise
p2115
I1329
sVmedium beet cut
p2116
I3470
sVfresh oregano leaf
p2117
I1987
sVbag coleslaw mix
p2118
I195
sVchop
p2119
I968
sVfrench roll lengthwise
p2120
I1868
sVchow
p2121
I978
sVchoy
p2122
I980
sVsan marzano tomato
p2123
I4551
sVtortilla chip
p2124
I5410
sVpinto bean liquid
p2125
I4033
sVpotato paper thin peel
p2126
I4140
sVlog
p2127
I3324
sVall-purpose flour
p2128
I42
sVpeppermint oil
p2129
I3956
sVhot dog cut third
p2130
I2650
sVcottage
p2131
I1197
sVfrozen banana minute
p2132
I2074
sVgroat
p2133
I2399
sVcrabmeat preferably fin stray shell
p2134
I1215
sVrom plum tomato
p2135
I4458
sVmedium onion ring
p2136
I3504
sVcornmeal
p2137
I1191
sVcomice
p2138
I1131
sVsalt-free blend
p2139
I4544
sVthinly deli ham
p2140
I5287
sVmild pork sausage
p2141
I3561
sVbunch fresh spinach
p2142
I620
sVbottle barbecue sauce choice
p2143
I479
sVherman sourdough starter
p2144
I2586
sVonion finely
p2145
I3769
sVtootsie roll
p2146
I5396
sVwheat pita bread
p2147
I5670
sVtomato soup
p2148
I5382
sVparmesan cheese rind
p2149
I3874
sVpear
p2150
I3919
sVthin scallion green green part
p2151
I5274
sVbulk
p2152
I585
sVunpeeled red apple
p2153
I5515
sVcaesar-style crouton
p2154
I696
sVlarge skinless boneless thigh bite-sized piece
p2155
I3122
sVuntoasted
p2156
I5543
sVflat-cut beef brisket
p2157
I1763
sVjar heart
p2158
I2825
sVmascarpone
p2159
I3432
sVreduced sodium worcestershire sauce
p2160
I4378
sVbay seasoning
p2161
I275
sVlinguine pasta
p2162
I3256
sVpork shoulder
p2163
I4104
sVasian chile paste
p2164
I134
sVchipotle pepper powder
p2165
I938
sVyellow bell thinly
p2166
I5780
sVgoya lemon juice
p2167
I2276
sVginger ale
p2168
I2224
sVcream-filled chocolate sandwich cooky oreo
p2169
I1247
sVloaf cuban french italian bread long
p2170
I3288
sVpumpkin pie filling
p2171
I4229
sVfresh jalapeno pepper lengthwise
p2172
I1951
sVjar marshmallow creme
p2173
I2834
sVcanadian-style bacon
p2174
I717
sVlarge skinless boneless breast
p2175
I3118
sVthickness
p2176
I5251
sVwarm water degree f
p2177
I5636
sVcastor sugar superfine sugar
p2178
I789
sVuncooked small pasta orzo pastina
p2179
I5506
sVfresh asparagus cut piece
p2180
I1876
sVground peanut
p2181
I2439
sVlow-fat plain yogurt
p2182
I3350
sVstrong
p2183
I5092
sVcrimini mushroom
p2184
I1277
sVvegetarian
p2185
I5586
sVvanilla-flavored
p2186
I5568
sVamount
p2187
I69
sVboneless skinless breast cut piece
p2188
I456
sVchunky
p2189
I986
sVbaby beet
p2190
I156
sVsorghum flour
p2191
I4918
sVlarge onion cut wedge
p2192
I3073
sVpeppercorn sauce
p2193
I3947
sVchestnut
p2194
I863
sVground flax seed
p2195
I2427
sVtuna water
p2196
I5434
sVlow-sodium parmesan cheese
p2197
I3359
sVsemi-soft cheese garlic herb alouette
p2198
I4623
sVgrill
p2199
I2393
sVoregano leaf
p2200
I3807
sVold-fashioned oatmeal
p2201
I3746
sVprepared horseradish taste
p2202
I4186
sVshredded hash brown potato
p2203
I4696
sVrib celery
p2204
I4411
sVbacon bite-size piece
p2205
I172
sVrotini
p2206
I4479
sVground nutmeg
p2207
I2436
sVunbaked pie crust footnote recipe link
p2208
I5460
sVlarge onion small dice
p2209
I3077
sVcoarse-grain
p2210
I1041
sVbutterball turkey dinner sausage lengthwise cut inch-thick
p2211
I669
sVlarge spanish onion thinly
p2212
I3124
sVbittersweet chocolate
p2213
I371
sVfirmly
p2214
I1741
sVcream cheese chive
p2215
I1232
sVchile garlic
p2216
I909
sVbag frozen meatball
p2217
I197
sVmedium banana
p2218
I3468
sVsheet sushi nori dry
p2219
I4670
sVcroissant split
p2220
I1293
sVfrench roll
p2221
I1866
sVunbaked
p2222
I5457
sVtri-color
p2223
I5418
sVbacon grease
p2224
I183
sVegg
p2225
I1521
sVlight brown sugar
p2226
I3219
sVcrisp rice cereal
p2227
I1280
sVfinely fresh garlic
p2228
I1693
sVglucose syrup
p2229
I2234
sVwiener
p2230
I5738
sVoreo chocolate sandwich cooky
p2231
I3810
sVskinless boneless salmon fillet
p2232
I4755
sVconfectioner sugar taste
p2233
I1143
sVbacon crisp
p2234
I173
sVhalf-circles
p2235
I2481
sVcelery seed
p2236
I810
sVmedium fresh tomato
p2237
I3484
sVavocado coarsely
p2238
I150
sVonion coarsely
p2239
I3762
sVcremini
p2240
I1262
sVfluid whiskey
p2241
I1830
sVfat margarine
p2242
I1613
sVfood
p2243
I1838
sVsmall onion
p2244
I4824
sVcoarsely black olive
p2245
I1045
sVmini twist pretzel
p2246
I3589
sVsaltine cracker finely
p2247
I4548
sVspanish onion
p2248
I4953
sVmonosodium glutamate ac'cent
p2249
I3625
sVcooked skinless boneless breast
p2250
I1153
sVfully
p2251
I2153
sVloaf sandwich bread
p2252
I3311
sVhead iceberg lettuce torn bite-size piece
p2253
I2546
sVjumbo egg
p2254
I2901
sVfraiche
p2255
I1844
sVheavy
p2256
I2563
sVprepared cake
p2257
I4167
sVbeef steak cut thin strip
p2258
I325
sVwhite rice cold
p2259
I5714
sVserrano chile pepper
p2260
I4635
sVfreshly-cracked
p2261
I2060
sVmedium shrimp shell
p2262
I3520
sVbass
p2263
I266
sVuncle ben 's ready rice jasmine
p2264
I5467
sVcornstarch
p2265
I1192
sVbase
p2266
I259
sVcaesar-style
p2267
I695
sVbacon bit taste
p2268
I171
sVfresh oyster
p2269
I1988
sVenvelope gelatin
p2270
I1572
sVsausage conecuh cut thick
p2271
I4569
sVchachere
p2272
I818
sVjerk mix
p2273
I2880
sVlarge pita
p2274
I3082
sVamerican
p2275
I62
sVdaisy
p2276
I1353
sVreduced-fat cheddar cheese
p2277
I4380
sVkielbasa sausage thin
p2278
I2932
sVschubert
p2279
I4583
sVbread choice
p2280
I527
sVlarge carrot cut matchstick piece
p2281
I2990
sVfrozen phyllo dough
p2282
I2117
sVmaple
p2283
I3400
sVwhite wheat bread
p2284
I5725
sVtomato sauce hunt 's
p2285
I5380
sVgreen onion sliver
p2286
I2372
sVchocolate candiquick
p2287
I944
sVlarge tomato
p2288
I3134
sVbanana
p2289
I230
sVcocktail sauce
p2290
I1072
sVjar alfredo sauce
p2291
I2804
sVburrito-size flour tortilla
p2292
I642
sVoriental-flavored ramen small piece
p2293
I3814
sVcoarsely crushed chocolate creme-filled sandwich cooky
p2294
I1053
sVsemisweet chocolate morsel
p2295
I4631
sVshiitake mushroom
p2296
I4680
sVgrey
p2297
I2392
sVcreamy peanut butter
p2298
I1254
sVhaddock
p2299
I2475
sVlarge fresh strawberry
p2300
I3025
sVarborio
p2301
I115
sVhot italian sausage link
p2302
I2656
sVhead individual leaf
p2303
I2549
sVolive oil spray
p2304
I3757
sVcoleslaw
p2305
I1118
sVkaiser roll split
p2306
I2906
sVfootnote
p2307
I1840
sVuncooked medium egg noodle
p2308
I5494
sVjuice
p2309
I2892
sVpie crust mix
p2310
I3991
sVsquare bittersweet chocolate
p2311
I5012
sVday-old bread cut cube
p2312
I1377
sVpacket honey mustard salad mix
p2313
I3840
sVanise extract anise oil
p2314
I92
sVprosciutto thin
p2315
I4213
sVred chilies
p2316
I4322
sVlight corn syrup
p2317
I3222
sVzucchini lengthwise
p2318
I5819
sVbeef roast
p2319
I314
sVpancetta lightly
p2320
I3859
sVfinely carrot
p2321
I1672
sVsprig fresh thyme
p2322
I5000
sVmace
p2323
I3382
sVcoarsely corn chip
p2324
I1051
sVhothouse
p2325
I2687
sVchicken-flavored
p2326
I903
sVclear
p2327
I1021
sVenvelope onion soup mix
p2328
I1574
sVblend
p2329
I394
sVbell pepper
p2330
I346
sVcheerio
p2331
I835
sVfresh pineapple
p2332
I1996
sVjalapeno pepper flesh
p2333
I2787
sVsaffron thread
p2334
I4509
sVchipotle chile adobo sauce
p2335
I933
sVtomato thinly
p2336
I5384
sVnorthern
p2337
I3713
sVbacon cut crosswise
p2338
I176
sVchow mein noodle
p2339
I979
sVcolby
p2340
I1096
sVal fresco sweet apple chicken sausage piece
p2341
I25
sVcircle
p2342
I1012
sVsmall tomato
p2343
I4863
sVranch salad
p2344
I4266
sVturkey gravy
p2345
I5444
sVdry bread mix
p2346
I1462
sVlink pork sausage
p2347
I3263
sVchocolate chip
p2348
I947
sVfluff
p2349
I1788
sVx
p2350
I5767
sVcountry mix
p2351
I1205
sVear corn cob husk silk
p2352
I1516
sVbag mexican cheese blend
p2353
I199
sVripe olive
p2354
I4440
sVcampbell 's condensed french onion soup
p2355
I711
sVgouda
p2356
I2261
sVwhite vinegar
p2357
I5723
sVgrocer
p2358
I2400
sVwok
p2359
I5750
sVpistachio nut
p2360
I4035
sVoverripe banana
p2361
I3822
sVbulgur
p2362
I583
sVlemon juice zest
p2363
I3194
sVspray
p2364
I4985
sVeggplant
p2365
I1542
sVpecan piece
p2366
I3933
sVchopped italian flat leaf parsley
p2367
I973
sVbay leaf
p2368
I273
sVxinch
p2369
I5771
sVwalnut taste
p2370
I5627
sVtuna olive oil
p2371
I5432
sVchocolate protein powder
p2372
I957
sVactive dry yeast fleischmann 's activedry yeast
p2373
I9
sVcoarse
p2374
I1028
sVnapa
p2375
I3674
sVreduced-fat
p2376
I4379
sVcoffee-flavored
p2377
I1090
sVplain bagel
p2378
I4050
sVlarge fresh button mushroom
p2379
I3018
sVleaf kale
p2380
I3163
sVchicken bouillon powder
p2381
I875
sVliver
p2382
I3274
sVskinless boneless breast cube
p2383
I4736
sVcandy-coated chocolate piece
p2384
I725
sVmilk room temperature
p2385
I3571
sVsugar pumpkin
p2386
I5108
sVpace
p2387
I3826
sVsmall head cabbage
p2388
I4810
sVsmall leek white part
p2389
I4819
sVoil-packed
p2390
I3737
sVartichoke heart hard leaf tip
p2391
I123
sVripe avocado
p2392
I4436
sVthinly red bell
p2393
I5310
sVfrozen tater tot
p2394
I2141
sVready
p2395
I4295
sVmuenster
p2396
I3645
sVjar raspberry preserve
p2397
I2851
sVsteel cut oat
p2398
I5056
sVkaro
p2399
I2911
sVmarshmallow cream marshmallow fluff
p2400
I3426
sVgrand
p2401
I2297
sVangel food cake cut cube
p2402
I87
sVcranberry craisins
p2403
I1221
sVcandy-coated
p2404
I724
sVfresh tarragon finely
p2405
I2025
sVpomegranate
p2406
I4079
sVfrozen banana skin chunk
p2407
I2075
sVbrussels
p2408
I574
sVlower-sodium chicken broth
p2409
I3362
sVthinly red onion
p2410
I5311
sVseedless grape
p2411
I4613
sVred chile paste
p2412
I4321
sVgrind
p2413
I2397
sVpacked flat leaf parsley
p2414
I3832
sVlarge hamburger bun split
p2415
I3048
sVmorsel
p2416
I3635
sVhollandaise sauce mix
p2417
I2605
sVball fresh mozzarella cut cube
p2418
I219
sVsprig fresh rosemary
p2419
I4996
sVrecipe pastry single pie crust
p2420
I4307
sVpepperoni sausage
p2421
I3961
sVtasso ham
p2422
I5201
sVblueberry juice
p2423
I407
sVgame
p2424
I2164
sVfrozen spinach
p2425
I2133
sVunsalted dry almond
p2426
I5527
sVwhite-wine
p2427
I5731
sVteriyaki sauce
p2428
I5215
sVminced
p2429
I3575
sVgill
p2430
I2221
sVyolk
p2431
I5800
sVbutter lukewarm
p2432
I655
sVlightly sharp cheddar cheese
p2433
I3237
sVhoagie roll split lengthwise
p2434
I2600
sVgreen olive pimento
p2435
I2365
sVrum
p2436
I4492
sVrub
p2437
I4491
sVcream style corn
p2438
I1243
sVstem
p2439
I5059
sVrhubarb thick
p2440
I4409
sVstew
p2441
I5060
sVraspberry
p2442
I4277
sVbacon taste
p2443
I188
sVcajun-style seasoning
p2444
I701
sVfinely chopped celery taste
p2445
I1681
sVgreen cardamom pod
p2446
I2351
sVtofu
p2447
I5349
sVsourdough bread
p2448
I4930
sVmazola pure cooking spray
p2449
I3448
sVmedium ripe tomato finely
p2450
I3516
sVbaby carrot thinly
p2451
I159
sVcubed turkey
p2452
I1323
sVsteak rub
p2453
I5050
sVpanko crumb
p2454
I3862
sVcorn syrup
p2455
I1176
sVloaf cheese food
p2456
I3282
sVbrown sugar butter corn oat breakfast cereal capn crunch
p2457
I569
sVbatter mix shore lunch
p2458
I269
sVhot sweet pepper
p2459
I2684
sVbeef finely
p2460
I302
sVcheddar cheese
p2461
I826
sVpecan finely
p2462
I3931
sVlemon extract
p2463
I3189
sVnestle
p2464
I3686
sVcelery stalk finely
p2465
I812
sVbar milk chocolate candy coarsely
p2466
I248
sVpre-washed gourmet salad green
p2467
I4157
sVfresh bread crumb
p2468
I1890
sVfrozen pea
p2469
I2114
sVfine cornmeal
p2470
I1664
sVraw sunflower seed
p2471
I4294
sVjar macadamia nut
p2472
I2829
sVkosher salt taste
p2473
I2953
sVketchup heinz
p2474
I2921
sVkidney
p2475
I2924
sVheirloom tomato
p2476
I2569
sVcolby-monterey jack cheese
p2477
I1101
sVlow-fat ricotta cheese
p2478
I3351
sVwheat tortilla
p2479
I5672
sVfrozen green pea
p2480
I2099
sVlime juice
p2481
I3245
sVjar red pepper
p2482
I2854
sVshoyu soy wheat soy sauce
p2483
I4692
sVrice wine vinegar
p2484
I4427
sVbottle ranch hidden valley original ranch
p2485
I502
sVx aluminum foil
p2486
I5768
sVe
p2487
I1511
sVfresh ginger root
p2488
I1930
sVuncooked rotini pasta
p2489
I5503
sVsoy sauce
p2490
I4939
sVlarge golden delicious apple
p2491
I3033
sVgarlic instant potato
p2492
I2181
sVranch-style salad
p2493
I4271
sVpureed pumpkin
p2494
I4239
sVleg lamb
p2495
I3183
sVbarbecue
p2496
I250
sVherbes de provence
p2497
I2584
sVherb garlic feta
p2498
I2576
sVonion powder
p2499
I3773
sVboneless chicken thigh skin
p2500
I439
sVsouthern-style
p2501
I4933
sVmozzarella cheese
p2502
I3640
sVwheat bread favorite bread
p2503
I5663
sVlarge banana
p2504
I2974
sVyellow cake mix
p2505
I5781
sVsmall piece
p2506
I4838
sVbutton mushroom
p2507
I688
sVold-fashioned oat
p2508
I3744
sVkaro light corn syrup
p2509
I2912
sVcaper garnish
p2510
I746
sVhot milk
p2511
I2660
sVcurry paste
p2512
I1341
sVpork shoulder roast
p2513
I4107
sVasparagus
p2514
I145
sVbutton
p2515
I687
sVsesame seed taste
p2516
I4647
sVred bell cut matchstick
p2517
I4313
sVvine-ripened
p2518
I5605
sVcapacola sausage
p2519
I743
sVboneless beef chuck roast fat
p2520
I434
sVwalnut oil taste
p2521
I5625
sVgoat cheese chevre
p2522
I2246
sVextra-large shrimp tail
p2523
I1587
sVsolid pack pumpkin puree
p2524
I4913
sVpepper
p2525
I3940
sVjar oil-packed sun-dried tomato
p2526
I2839
sVthinly scotch fillet chuck eye steak
p2527
I5316
sVcomice pear
p2528
I1132
sVmild chunky salsa
p2529
I3554
sVself-rising cornmeal
p2530
I4620
sVsausage
p2531
I4567
sVcampbell 's condensed cream mushroom soup regular fat free healthy request
p2532
I709
sVespresso
p2533
I1579
sVbunch spinach torn bite-size piece
p2534
I636
sVapplesauce
p2535
I108
sVpork tenderloin cut cube
p2536
I4113
sVlarge yellow onion thin
p2537
I3146
sVcocktail rye bread
p2538
I1071
sVmedium cucumber
p2539
I3480
sVcreamy italian-style salad
p2540
I1253
sVpancake
p2541
I3856
sVasiago
p2542
I131
sVneufchatel cheese room temperature
p2543
I3689
sVflavor fruit jam
p2544
I1767
sVgreek seasoning taste
p2545
I2326
sVchopped italian parsley
p2546
I974
sVbuckwheat
p2547
I575
sVwedge brie cheese
p2548
I5653
sVstrawberry-banana
p2549
I5083
sVcajun taste
p2550
I699
sVmccormick cinnamon ground
p2551
I3451
sVjar meatless spaghetti
p2552
I2836
sVlettuce preferably
p2553
I3212
sVcucumber diagonal
p2554
I1327
sVextra-lean
p2555
I1588
sVcrab
p2556
I1210
sVgreek salad
p2557
I2324
sVlacinato dinosaur kale torn piece
p2558
I2960
sVbelgian
p2559
I342
sVfresh asparagus cut third
p2560
I1877
sVorange extract
p2561
I3786
sVground chile pepper
p2562
I2416
sVfresh mozzarella cheese cut
p2563
I1973
sVstarter
p2564
I5047
sVsalad
p2565
I4515
sVfresh ginger root finely
p2566
I1931
sVmostaccioli
p2567
I3636
sVadditional cocktail sauce
p2568
I13
sVlight coconut milk
p2569
I3221
sVbunch fresh parsley finely
p2570
I619
sVfresh spinach
p2571
I2014
sVamish friendship bread starter
p2572
I68
sVlarge lemon
p2573
I3058
sVbermuda onion finely
p2574
I350
sVbunch kale stem leaf
p2575
I631
sVfresno chile pepper cut ring
p2576
I2065
sVuntoasted walnut
p2577
I5545
sVmix bisquick
p2578
I3608
sVfresh shrimp
p2579
I2012
sVlarge shrimp
p2580
I3114
sVjalapeno pepper taste
p2581
I2794
sVchunky peanut butter
p2582
I988
sVmission small fajita super soft flour tortilla
p2583
I3605
sVcircular
p2584
I1013
sVstray
p2585
I5087
sVfresh italian parsley
p2586
I1945
sVlight sour cream
p2587
I3231
sVfarm
p2588
I1606
sVwheat phyllo
p2589
I5669
sVinstant espresso coffee powder
p2590
I2726
sVjiffy
p2591
I2885
sVblack pepper
p2592
I382
sVenvelope fleischmann 's rapidrise yeast
p2593
I1571
sVspicy pork sausage
p2594
I4972
sVscoop
p2595
I4584
sVbutternut squash cut cube
p2596
I676
sVred wine
p2597
I4370
sVsquid cut ring
p2598
I5025
sVfresno
p2599
I2064
sVjar taco sauce
p2600
I2867
sVsmall yellow summer squash coarsely
p2601
I4871
sVfrench baguette
p2602
I1850
sVbag broccoli floret bite-size piece
p2603
I192
sVthick chunky salsa
p2604
I5227
sVthick-sliced
p2605
I5247
sVwalnut
p2606
I5623
sVsquare wonton wrapper
p2607
I5022
sVsheet nori sheet
p2608
I4668
sVfresh jalapeno pepper finely
p2609
I1950
sVcream potato soup
p2610
I1241
sVrusset potato finely
p2611
I4499
sVfat-free mayonnaise
p2612
I1619
sVstout
p2613
I5073
sVwax bean
p2614
I5651
sVsmall seashell pasta
p2615
I4854
sVcranberry taste
p2616
I1225
sVfluid tomato clam juice cocktail
p2617
I1825
sVamaretto liqueur
p2618
I61
sVsingle pie crust
p2619
I4717
sVcitric acid powder
p2620
I1016
sVpacket sugar substitute
p2621
I3847
sVchunk
p2622
I983
sVcitric
p2623
I1015
sVboneless salmon fillet
p2624
I452
sVfinely green chile pepper
p2625
I1703
sVsandwich-style dill pickle
p2626
I4558
sVfiltered spring water
p2627
I1660
sVfreshly ground black pepper
p2628
I2047
sVlukewarm
p2629
I3367
sVchocolate hazelnut spread
p2630
I953
sVgoya hot sauce
p2631
I2274
sVfrozen cut asparagus
p2632
I2090
sVextra-sharp cheddar cheese
p2633
I1591
sVdiagonal
p2634
I1407
sVtomato juice
p2635
I5371
sVjar mushroom
p2636
I2838
sVancho chile powder
p2637
I74
sVloaf cinnamon raisin bread
p2638
I3285
sVflorida
p2639
I1779
sVbulgur wheat
p2640
I584
sVpork tenderloin cut grain
p2641
I4114
sVlemon juice taste
p2642
I3193
sVbeef frankfurter
p2643
I307
sVquick-cooking
p2644
I4249
sVcod chunk
p2645
I1085
sVgarlic finely
p2646
I2177
sVfinely fresh pineapple
p2647
I1698
sVpotato cut cube
p2648
I4136
sVwrapper
p2649
I5766
sVvegetable oil pan-frying
p2650
I5582
sVitalian sausage link piece
p2651
I2760
sVmanchego
p2652
I3387
sVfour-cheese
p2653
I1842
sVcoconut flour
p2654
I1079
sVthin cut pork chop
p2655
I5257
sVcarrot cut chunk
p2656
I769
sVben
p2657
I348
sVanaheim
p2658
I70
sVcampbell 's condensed cream mushroom soup regular fat free sodium
p2659
I710
sVdry mustard powder
p2660
I1488
sVsmall egg
p2661
I4797
sVtub sun-dried tomato pesto
p2662
I5426
sVthin pretzel stick
p2663
I5266
sVlightly
p2664
I3234
sVmedium onion cut cube
p2665
I3499
sVlemon thinly
p2666
I3199
sVtoothpick water
p2667
I5394
sVfluid heavy cream
p2668
I1814
sVthin provolone cheese
p2669
I5269
sVsmall onion finely
p2670
I4829
sVheavy cream room temperature
p2671
I2565
sVlight cream cheese
p2672
I3224
sVsoda cracker
p2673
I4898
sVwok oil peanut oil
p2674
I5751
sVjalapeno pepper rib seed finely
p2675
I2791
sVsafflower oil
p2676
I4507
sVcreamer
p2677
I1251
sVshredded sweet potato
p2678
I4703
sVred rice wine vinegar
p2679
I4365
sVfinely broccoli
p2680
I1671
sVbreast chunk
p2681
I544
sVparsley taste
p2682
I3881
sVspring lettuce mix
p2683
I5005
sVhot pete 's
p2684
I2676
sVbeef bouillon cube
p2685
I289
sVsquare semisweet baking chocolate
p2686
I5017
sVfluid vegetable broth
p2687
I1827
sVhawaiian sea salt
p2688
I2523
sVmayonnaise taste
p2689
I3446
sVfrozen dinner roll dough
p2690
I2093
sVnutmeg
p2691
I3716
sVzucchini squash spiral slicer vegetable peeler
p2692
I5822
sVchinese pork cut matchstick
p2693
I927
sVloaf frozen white bread dough
p2694
I3305
sVwhole-wheat
p2695
I5734
sVgoya bay leaf
p2696
I2266
sVpowder
p2697
I4147
sVunsweetened
p2698
I5534
sVsmall potato
p2699
I4840
sVlup
p2700
I3377
sVlarge onion thick
p2701
I3078
sVhot sauce tabasco
p2702
I2681
sVboneless pork chop
p2703
I441
sVfrozen italian-style meatball
p2704
I2104
sVbibb
p2705
I354
sVlemon wedge
p2706
I3200
sVfrozen broccoli floret
p2707
I2081
sVmontreal steak taste
p2708
I3632
sVkey
p2709
I2922
sVvanilla yogurt-covered raisin
p2710
I5567
sVrotelle pasta
p2711
I4477
sVsalad shrimp
p2712
I4517
sVonion bite-sized piece
p2713
I3761
sVfinely dry peanut
p2714
I1687
sVhot strong coffee
p2715
I2683
sVfrozen sweet corn
p2716
I2139
sVpetite green pea
p2717
I3971
sVpeanut butter
p2718
I3911
sVitalian taste
p2719
I2762
sVthinly roast beef
p2720
I5312
sVfresh asparagus
p2721
I1875
sVbalsamic
p2722
I220
sVyam
p2723
I5773
sVuncooked angel hair pasta
p2724
I5470
sVsliced black olive
p2725
I4769
sVgreek vinaigrette salad
p2726
I2327
sVlarge white onion
p2727
I3141
sVrice chex corn chex chocolate chex cereal combinbation
p2728
I4417
sVrussian-style
p2729
I4501
sVvanilla-flavored candy coating
p2730
I5569
sVitalian herb
p2731
I2754
sVwhite bread cube
p2732
I5686
sVnon-stick cooking spray
p2733
I3703
sVfrozen skinless boneless chicken breast
p2734
I2130
sVground spicy pork sausage
p2735
I2449
sVground turkey breast
p2736
I2454
sVcoating
p2737
I1068
sVchinese spice powder
p2738
I928
sVsweet white corn
p2739
I5162
sVgarlic crouton
p2740
I2176
sVbeef short rib
p2741
I316
sVbeef chuck pot roast
p2742
I295
sVimitation crab meat
p2743
I2706
sVbeef rib roast
p2744
I312
sVparty
p2745
I3888
sVcubed skinless boneless breast meat
p2746
I1321
sVcream sherry
p2747
I1242
sVrome beauty apple
p2748
I4469
sVkonbu
p2749
I2945
sVasian chile pepper sauce taste
p2750
I136
sVpoultry
p2751
I4146
sVpizza sauce contadina
p2752
I4048
sVi
p2753
I2696
sVcolby-jack cheese
p2754
I1099
sVlarge yellow onion cut thin sliver
p2755
I3145
sVbreast meat
p2756
I546
sVbunch fresh cilantro leaf
p2757
I612
sVorange taste
p2758
I3796
sVgreen bell strip
p2759
I2345
sVcrushed
p2760
I1302
sVmushroom stem
p2761
I3660
sVpork butt roast
p2762
I4093
sVgrape-nuts
p2763
I2312
sVcreme menthe liqueur
p2764
I1260
sVxanthan gum
p2765
I5770
sVvermouth
p2766
I5599
sVcandy
p2767
I719
sVcorn flour tortilla
p2768
I1172
sVgreek yogurt
p2769
I2328
sVhalf-and-half cream
p2770
I2479
sVfresh cilantro coarsely
p2771
I1902
sVlarge banana cut piece frozen
p2772
I2978
sVgreen olive
p2773
I2364
sVfillet tilapia
p2774
I1657
sVhome
p2775
I2606
sVgraham cracker pie crust pie shell
p2776
I2289
sVcherry yogurt
p2777
I861
sVyukon
p2778
I5803
sVitalian-style salad
p2779
I2771
sVhot frank 's red hot
p2780
I2651
sVolive oil drizzling
p2781
I3753
sVgarlic thinly
p2782
I2197
sVpork tenderloin cut strip
p2783
I4115
sVclear vanilla extract
p2784
I1023
sVlarge sweet potato cut
p2785
I3131
sVquarter
p2786
I4244
sVfrozen sandwich steak meat
p2787
I2129
sVcranberry
p2788
I1220
sVtongue
p2789
I5391
sVmushrooms-stems
p2790
I3662
sVground turmeric
p2791
I2456
sVmarshmallow creme
p2792
I3427
sVregular-size
p2793
I4401
sVloaf challah cut
p2794
I3280
sVtenderloin
p2795
I5211
sVcocoa
p2796
I1074
sVbutter-margarine
p2797
I664
sVvinegar taste
p2798
I5610
sVciabatta
p2799
I991
sVadditional
p2800
I12
sVcaramel sauce
p2801
I753
sVdrumstick
p2802
I1457
sVchile-garlic sauce sriracha taste
p2803
I914
sVskinless boneless breast cut bite size piece
p2804
I4737
sVgluten
p2805
I2236
sVfresh lemon lime juice
p2806
I1958
sVcheese tortellini
p2807
I847
sVraisin cinnamon bread pepperidge farm
p2808
I4259
sVear
p2809
I1514
sVharina
p2810
I2513
sVjar spaghetti
p2811
I2863
sVloaf italian bread cut cube
p2812
I3309
sVgoya ground cumin
p2813
I2273
sVcoriander seed
p2814
I1161
sVmedium onion cut wedge
p2815
I3501
sVpiece
p2816
I3994
sVcoarsely ground grit
p2817
I1059
sVcherry tomato taste
p2818
I860
sVtwist
p2819
I5455
sVlarge green bell piece
p2820
I3042
sVsoda water
p2821
I4899
sVpenne
p2822
I3938
sVmeatball
p2823
I3460
sVhot sauce taste
p2824
I2682
sVpineapple orange juice blend
p2825
I4024
sVsmokie sausage
p2826
I4884
sVquick-cooking grit
p2827
I4250
sVthin prosciutto cut
p2828
I5268
sVlarge granny smith apple
p2829
I3034
sVstar
p2830
I5043
sVsmall peach cut dice
p2831
I4834
sVhomestyle
p2832
I2612
sVgorgonzola
p2833
I2259
sVtasso
p2834
I5200
sVlarge fresh jalapeno pepper lengthwise
p2835
I3019
sVbunch fresh spinach tough stem
p2836
I624
sVstrong coffee
p2837
I5093
sVlarge egg slightly
p2838
I3010
sVportion
p2839
I4124
sVleaf napa cabbage
p2840
I3165
sVslider-size
p2841
I4776
sVasian
p2842
I133
sVjalapeno chile pepper finely
p2843
I2781
sVbarbeque taste
p2844
I255
sVswan
p2845
I5135
sVherb garlic soup mix
p2846
I2577
sVmeat cut strip
p2847
I3458
sVpancetta
p2848
I3858
sVgarlic coarsely
p2849
I2175
sVvenison cut thick strip
p2850
I5594
sVlarge curd cottage cheese
p2851
I3004
sVhead cabbage
p2852
I2531
sVflaxseed meal
p2853
I1775
sVsmall avocado
p2854
I4783
sVrib-eye
p2855
I4413
sVlouisiana-style
p2856
I3340
sVbaking
p2857
I216
sVuncooked
p2858
I5469
sVsmall fresh dill sprig
p2859
I4799
sVjapanese
p2860
I2800
sVberry cranberry sauce
p2861
I352
sVfontina
p2862
I1836
sVgarlic-herb cheese
p2863
I2204
sVfat-free bean
p2864
I1616
sVsmall jicama
p2865
I4818
sValbacore
p2866
I26
sVfrozen apple cider concentrate
p2867
I2072
sVhamburger bun split lightly
p2868
I2498
sVtabasco sauce
p2869
I5174
sVactive
p2870
I6
sVciabatta sandwich roll
p2871
I994
sVjohnsonville
p2872
I2889
sVpineapple juice
p2873
I4023
sVdry
p2874
I1458
sVhot mustard sweet hot mister mustard
p2875
I2662
sVhoagie roll
p2876
I2599
sVpack
p2877
I3830
sVvegetable oil
p2878
I5577
sVsmall mushroom
p2879
I4823
sVslicer
p2880
I4775
sVstalk celery wide
p2881
I5041
sVanchovy filet
p2882
I76
sVsliced
p2883
I4767
sVyellow squash
p2884
I5797
sVsoybean
p2885
I4943
sVshoyu
p2886
I4691
sVarugula leaf spring mix
p2887
I129
sVfinely ground pork
p2888
I1707
sVprepared pizza crust
p2889
I4194
sVbrown rice
p2890
I567
sVgrain tortilla
p2891
I2294
sVfresh mozzarella cheese bite-size piece
p2892
I1972
sVtype
p2893
I5456
sVmild curry powder
p2894
I3555
sVflax seed
p2895
I1771
sVunsweetened coconut
p2896
I5538
sVwarm
p2897
I5628
sVbread crust
p2898
I529
sVcucumber thin strip
p2899
I1332
sVplain nonfat yogurt
p2900
I4058
sVroom
p2901
I4470
sVhoney graham cereal
p2902
I2618
sVcream broccoli soup
p2903
I1229
sVchocolate fudge
p2904
I951
sVroot
p2905
I4471
sVmaple-flavored
p2906
I3407
sVbunch fresh cilantro garnish
p2907
I611
sVvodka
p2908
I5620
sVdashi stock dashi powder
p2909
I1370
sVbottle tomato-based chili sauce
p2910
I504
sVjar dill pickle
p2911
I2821
sVfinely white chocolate
p2912
I1731
sVhot chile pepper finely taste
p2913
I2644
sVhoney
p2914
I2616
sValmond butter
p2915
I49
sVorange liqueur taste
p2916
I3790
sVbeef soup bone cut piece
p2917
I323
sVrib
p2918
I4410
sVfrozen fresh gnocchi
p2919
I2097
sVground sausage
p2920
I2447
sVwhite bread cut cube
p2921
I5688
sVcanola oil frying
p2922
I737
sVartichoke heart water
p2923
I125
sVsmall chile pepper
p2924
I4793
sVcatfish fillet
p2925
I792
sVthird
p2926
I5321
sVday-old bread cube
p2927
I1376
sVfresh peach
p2928
I1993
sVcaper brine
p2929
I745
sVfinely parmigiano-reggiano cheese taste
p2930
I1715
sVflaky-style biscuit pillsbury grand
p2931
I1753
sVmaraschino
p2932
I3409
sVlarge red bell
p2933
I3097
sVpepperoncini pepper taste
p2934
I3959
sVbunch green onion thinly
p2935
I628
sVprepared green salsa
p2936
I4181
sVbeef sirloin roast
p2937
I320
sVspicy mustard
p2938
I4971
sVjalapeno chile pepper
p2939
I2780
sVcombination
p2940
I1129
sVspear fresh asparagus
p2941
I4959
sVfluid nestle carnation milk
p2942
I1822
sVrunny
p2943
I4496
sVdecorator
p2944
I1383
sVmeat
p2945
I3457
sVsushi-style
p2946
I5134
sVshrimp coarsely
p2947
I4707
sVfresh thai basil leaf
p2948
I2027
sVroast
p2949
I4447
sVfavorite marinara-style pasta sauce
p2950
I1630
sVcarb wheat tortilla
p2951
I759
sVrosemary
p2952
I4473
sVmeal
p2953
I3456
sVbone
p2954
I415
sVlean beef stew meat cut cube
p2955
I3170
sVstale wheat bread torn
p2956
I5031
sVbutter extract
p2957
I652
sVbunch slender asparagus spear diagonal piece
p2958
I634
sVadobo
p2959
I14
sVportobello mushroom thinly
p2960
I4129
sVnavy
p2961
I3681
sVextract
p2962
I1596
sVred wine vinegar taste
p2963
I4372
sVlarge eggplant
p2964
I3013
sVspice island pure bourbon vanilla extract
p2965
I4962
sVhot pepper sauce taste
p2966
I2674
sVgaram masala
p2967
I2166
sVbaby green field green
p2968
I162
sVdill taste
p2969
I1433
sVbanana crosswise
p2970
I233
sVfava
p2971
I1627
sVcanadian-style
p2972
I716
sVfresh ginger finely
p2973
I1929
sVtabasco
p2974
I5173
sVapple peel
p2975
I105
sVfresh ground black pepper
p2976
I1938
sVbottle mccormick food color
p2977
I498
sVcreme-filled
p2978
I1261
sVturkey bite-size piece
p2979
I5438
sVcheese piece
p2980
I843
sVtilapia
p2981
I5335
sVgrade
p2982
I2284
sVciabatta sandwich roll horizontally
p2983
I995
sVlettuce
p2984
I3210
sVunpopped
p2985
I5517
sVwalnut piece
p2986
I5626
sVcranberry juice
p2987
I1222
sVspinach
p2988
I4973
sVbonito
p2989
I469
sVfresh mushrooms-stems
p2990
I1982
sVyellow grape tomato
p2991
I5787
sVground cumin
p2992
I2425
sVthinly deli turkey breast
p2993
I5290
sVdeli roast beef
p2994
I1391
sVjalapeno salsa
p2995
I2796
sVcoconut pecan frosting
p2996
I1083
sVbottle cocktail sauce
p2997
I487
sVpilsner-style
p2998
I4008
sVonion lengthwise eighth
p2999
I3772
sVgreen bell long strip
p3000
I2341
sVbeef cube steak
p3001
I299
sVdry beef gravy mix
p3002
I1460
sVgarlic pepper seasoning
p3003
I2187
sVpork baby rib
p3004
I4091
sVcold butter
p3005
I1103
sVboneless chicken breast
p3006
I437
sVmini
p3007
I3579
sVprepared ranch
p3008
I4196
sVyukon gold potato thinly
p3009
I5806
sVginger
p3010
I2223
sVseed
p3011
I4609
sVhot coffee
p3012
I2646
sVdragee
p3013
I1451
sVmint
p3014
I3597
sVmini chocolate chip
p3015
I3582
sVlouisiana-style hot sauce taste
p3016
I3342
sVbeer water
p3017
I338
sVgreen onion white part top
p3018
I2381
sVbone-in skin-on chicken breast
p3019
I427
sVconsomme
p3020
I1144
sVbuckwheat groat
p3021
I577
sVitalian sausage
p3022
I2758
sVregular
p3023
I4398
sVflax seed meal
p3024
I1773
sVwatercress
p3025
I5646
sVkale stem leaf
p3026
I2910
sVcracker crumb
p3027
I1218
sVapple thinly
p3028
I107
sVm
p3029
I3378
sVdog
p3030
I1445
sVmultigrain hot cereal
p3031
I3653
sVthick day-old french bread
p3032
I5231
sVgreen onion white part
p3033
I2380
sVscotch
p3034
I4586
sVgala apple
p3035
I2161
sVbutt
p3036
I644
sVchickpea garbanzo bean
p3037
I907
sVgreen onion thinly
p3038
I2374
sVsunflower seed kernel
p3039
I5127
sVpernod
p3040
I3962
sVlarge red onion
p3041
I3101
sVwhite wine
p3042
I5728
sVchocolate sandwich cookie crumb
p3043
I958
sVsugar
p3044
I5105
sVcelery
p3045
I805
sVclear imitation vanilla extract
p3046
I1022
sVpolenta
p3047
I4076
sVthickly zucchini
p3048
I5250
sVcolor coleslaw blend
p3049
I1124
sVdry red wine
p3050
I1497
sVfresh chive
p3051
I1897
sVflat iron steak
p3052
I1759
sVmedium bell
p3053
I3471
sVzesty
p3054
I5809
sVbar
p3055
I241
sVsaltine cracker crumb
p3056
I4547
sVpastry double crust pie
p3057
I3898
sVbiscuit biscuit
p3058
I356
sVbag
p3059
I189
sVchickpea
p3060
I906
sVloaf french bread horizontally
p3061
I3300
sVgrilled
p3062
I2394
sVfluffy
p3063
I1789
sVcoffee-flavored liqueur
p3064
I1091
sVraw shrimp
p3065
I4292
sVpete
p3066
I3969
sVartificial
p3067
I126
sVchicken wing
p3068
I899
sVpork tenderloin fat
p3069
I4116
sVday-old
p3070
I1374
sVmedium bell piece
p3071
I3473
sVhard-cooked
p3072
I2509
sVuncooked elbow macaroni
p3073
I5477
sVboneless skinless chicken breast
p3074
I461
sVancho
p3075
I73
sVportobello mushroom cap
p3076
I4127
sVvitamin
p3077
I5618
sVfresh green asparagus spear
p3078
I1933
sVeggnog
p3079
I1541
sVwhite corn
p3080
I5699
sVpate
p3081
I3903
sVdry onion soup mix
p3082
I1490
sVolive oil preferably tin anchovy
p3083
I3755
sVcomplete dry pancake mix
p3084
I1135
sVgoya oregano leaf
p3085
I2277
sVdusting
p3086
I1508
sVparsley
p3087
I3879
sVtiny
p3088
I5339
sVdry enchilada sauce mix
p3089
I1469
sVbasic
p3090
I260
sVbasil
p3091
I261
sVstick butter
p3092
I5063
sVjalapeno pepper lengthwise seed membrane
p3093
I2790
sVrotelle
p3094
I4476
sVherb-seasoned
p3095
I2579
sVfrozen non-dairy
p3096
I2110
sVmushroom
p3097
I3657
sVpineapple apple juice
p3098
I4019
sVcinnamon chex cereal
p3099
I1005
sVbone-in picnic ham
p3100
I422
sVsilver dragee candy
p3101
I4714
sVbunch celery piece
p3102
I599
sVfrench onion soup
p3103
I1865
sVsoft bread cube
p3104
I4906
sVbosc pear thinly
p3105
I473
sVbell color
p3106
I344
sVbalance
p3107
I217
sVhot sauce
p3108
I2680
sVturkey broth
p3109
I5441
sVcane
p3110
I728
sVmexico
p3111
I3545
sVchallah
p3112
I821
sVsushi
p3113
I5133
sVcold white rice
p3114
I1115
sVhalf-and-half light cream
p3115
I2480
sVbeef tenderloin
p3116
I330
sVartichoke heart
p3117
I122
sVbella
p3118
I347
sVvegetable
p3119
I5575
sVfiltered
p3120
I1659
sVcut-up chicken
p3121
I1349
sVbaby dutch yellow potato
p3122
I161
sVprepared tomato sauce
p3123
I4202
sVgarlic
p3124
I2170
sVkielbasa polish sausage piece
p3125
I2929
sVsmall shallot coarsely
p3126
I4855
sVorecchiette pasta taste
p3127
I3805
sVbutter
p3128
I645
sVbeef hot dog
p3129
I309
sVlarge button mushroom
p3130
I2987
sVitalian salad
p3131
I2757
sVunseasoned
p3132
I5532
sVboneless pork shoulder
p3133
I449
sVfinely peppermint candy cane
p3134
I1717
sVrome
p3135
I4468
sVsmoked
p3136
I4879
sVextra-virgin olive oil taste
p3137
I1595
sVthin cheddar cheese
p3138
I5254
sVtapioca starch
p3139
I5192
sVcheddar monterey jack cheese blend
p3140
I828
sVhead red leaf lettuce torn
p3141
I2552
sVfresh tuna steak
p3142
I2038
sVcinnamon applesauce
p3143
I1004
sVfresh pasta sheet
p3144
I1992
sVsunflower
p3145
I5125
sVapple pie
p3146
I106
sVhot chile paste
p3147
I2641
sVcube steak cut bite size piece
p3148
I1314
sVfresh tomato finely
p3149
I2037
sVskinless boneless thigh cut small piece
p3150
I4756
sVfood coloring
p3151
I1839
sVfettuccine noodle
p3152
I1639
sVsoba noodle
p3153
I4896
sVindividually caramel
p3154
I2713
sVpacket chicken bouillon granule
p3155
I3834
sVred kidney bean
p3156
I4332
sVprepared graham cracker crust
p3157
I4179
sVunbleached
p3158
I5463
sVthai chili sauce hot sauce
p3159
I5219
sVjar alfredo-style pasta sauce
p3160
I2805
sVdean
p3161
I1380
sVmedium head cabbage coarsely
p3162
I3493
sVcrispy corn cereal square
p3163
I1284
sValouette
p3164
I58
sVlarge chicken breast bite size piece
p3165
I2993
sVolive oil cooking spray
p3166
I3751
sVsirloin tip
p3167
I4720
sVbacon cut third
p3168
I180
sVpacket sazon goya natural complete
p3169
I3846
sVthick crusty bread
p3170
I5228
sVtomato garlic onion
p3171
I5364
sVground pepper
p3172
I2441
sVsuper
p3173
I5130
sVfeta cheese sun-dried tomato
p3174
I1637
sVoreo
p3175
I3809
sVsplit pea
p3176
I4982
sVcoconut finely
p3177
I1078
sVcanola oil
p3178
I736
sVorange-fleshed
p3179
I3798
sVargo kingsford 's corn starch
p3180
I118
sVshredded american cheddar cheese blend
p3181
I4694
sVgarbanzo bean chickpea
p3182
I2168
sVuncooked jasmine rice
p3183
I5484
sVpumpernickel party bread
p3184
I4226
sVbrown sugar
p3185
I568
sVgreen bell lengthwise
p3186
I2340
sVblue cheese
p3187
I399
sVmexican-style cheese blend
p3188
I3542
sVonion wedge
p3189
I3779
sVac'cent
p3190
I2
sVlow-sodium chicken broth carton
p3191
I3358
sVmarinara
p3192
I3416
sVpaprika taste
p3193
I3870
sVmargarine butter
p3194
I3414
sVwhiskey
p3195
I5679
sVfresh thai serrano chile finely
p3196
I2028
sVclassic
p3197
I1020
sVthinly roast turkey
p3198
I5313
sVbackstrap
p3199
I168
sVlarge granny smith apple thinly
p3200
I3035
sVzucchini cut lengthwise diagonally
p3201
I5817
sVbone-in turkey breast
p3202
I429
sVraw almond
p3203
I4287
sVprepared mustard
p3204
I4188
sVlarge fresh shrimp
p3205
I3024
sVvenison
p3206
I5592
sVhead green cabbage
p3207
I2542
sVuncooked arborio rice
p3208
I5471
sVfluid bottle mexican beer corona
p3209
I1803
sVuncooked couscous
p3210
I5474
sVolive
p3211
I3747
sVfresh ground pork sausage
p3212
I1940
sVthin deli turkey
p3213
I5260
sVpotato
p3214
I4132
sVdeli-sliced turkey
p3215
I1395
sVcold chicken
p3216
I1107
sVfrozen bite-sized potato nugget tater tot
p3217
I2076
sVchicken breast
p3218
I876
sVsmall pearl tapioca
p3219
I4835
sVturkey meat
p3220
I5448
sVmild
p3221
I3551
sVskim
p3222
I4725
sVmahi mahi fillet
p3223
I3385
sVskin
p3224
I4727
sVcandy corn
p3225
I721
sVcoarsely watermelon
p3226
I1066
sVmilk
p3227
I3565
sVbeef top sirloin steak
p3228
I334
sVsour milk
p3229
I4928
sVhot chicken stock
p3230
I2640
sVdark brown sugar
p3231
I1358
sVfluid bottle buffalo sauce
p3232
I1794
sVvegetable broth
p3233
I5576
sVfresh pineapple cut piece
p3234
I1998
sVpeppermint candy
p3235
I3953
sVrosemary focaccia bread square roll split
p3236
I4474
sVbeef cocktail wiener
p3237
I297
sVyeast
p3238
I5774
sVjar pepperoncini
p3239
I2843
sVnon-instant
p3240
I3700
sVsesame oil
p3241
I4643
sVnectar
p3242
I3684
sVthick-cut boneless pork loin chop
p3243
I5244
sVlarge stalk celery
p3244
I3125
sVdip
p3245
I1440
sVround
p3246
I4490
sVfluid cola-flavored beverage
p3247
I1811
sVseasoning
p3248
I4605
sVenvelope ranch mix
p3249
I1575
sVcurrant
p3250
I1339
sVhomemade pesto
p3251
I2611
sVgnocchi
p3252
I2243
sVxinch focaccia bread piece split horizontally
p3253
I5772
sVpillsbury grand biscuit
p3254
I4007
sVbone-in skin-on chicken thigh
p3255
I428
sVfillet
p3256
I1650
sVred potato paper towel
p3257
I4359
sVfresh cheese tortellini
p3258
I1895
sVcurly endive chopped
p3259
I1338
sVegg substitute
p3260
I1531
sVfinely fresh parsley
p3261
I1697
sVdeli-sliced
p3262
I1394
sVlemon-lime
p3263
I3204
sVlarge sweet onion cut wedge
p3264
I3129
sVpart-skim mozzarella cheese
p3265
I3885
sVfarfalle bow tie pasta
p3266
I1604
sVbreast boneless skin-on
p3267
I543
sVfresh ground black pepper taste
p3268
I1939
sVfrench
p3269
I1849
sVlobster meat
p3270
I3321
sVbread cut cube
p3271
I531
sVfrosting
p3272
I2070
sVfresh fig
p3273
I1920
sVgraham cracker crumb
p3274
I2287
sVeggplant thick
p3275
I1546
sVcanadian
p3276
I713
sVloaf focaccia thick
p3277
I3293
sVbow
p3278
I513
sVbok
p3279
I412
sVkraft mexican style cheese
p3280
I2956
sVcubed english cucumber
p3281
I1318
sVbutter cooking spray
p3282
I648
sVthinly deli turkey
p3283
I5289
sVdry fajita seasoning
p3284
I1470
sVloaf white bread cut cube
p3285
I3318
sVsaltine
p3286
I4545
sVsake
p3287
I4514
sVcreamy
p3288
I1252
sVmedium red potato peel
p3289
I3514
sVfresh coffee
p3290
I1910
sVsmall zucchini
p3291
I4872
sVfresh marjoram leaf
p3292
I1966
sVplum tomato
p3293
I4067
sVminced italian flat-leaf parsley
p3294
I3576
sVlightly sugar
p3295
I3238
sVlarge onion cut thick
p3296
I3071
sVcarrot taste
p3297
I779
sVmarzano
p3298
I3428
sVsuperfine sugar
p3299
I5132
sVsoup
p3300
I4919
sVsour
p3301
I4922
sVliquid smoke flavoring
p3302
I3269
sVseafood bay taste
p3303
I4596
sVchocolate peanut butter eighth
p3304
I956
sVfreshly orange peel
p3305
I2053
sVfresh chive garnish
p3306
I1898
sVlarge onion thickly
p3307
I3079
sVboneless pork shoulder chunk
p3308
I450
sVstrong coffee room temperature
p3309
I5095
sVcavatelli pasta
p3310
I797
sVfinely sharp cheddar cheese
p3311
I1723
sVsprig fresh dill
p3312
I4992
sVpink
p3313
I4029
sVlarge russet potato
p3314
I3111
sVpina
p3315
I4014
sVpine
p3316
I4016
sVromaine bite size piece
p3317
I4462
sVpure
p3318
I4233
sVsalmon roe
p3319
I4528
sVgluten-free purpose flour
p3320
I2239
sValbacore tuna
p3321
I27
sVthin sandwich bread crust
p3322
I5273
sVmedium onion finely
p3323
I3502
sVprepared eggnog
p3324
I4178
sVgelatin
p3325
I2207
sVrice noodle pad thai noodle
p3326
I4420
sVcoarse kosher salt taste
p3327
I1033
sVneck
p3328
I3683
sVbottle favorite barbecue sauce
p3329
I489
sVground white pepper taste
p3330
I2461
sVfresh italian flat parsley
p3331
I1944
sVpolish kielbasa
p3332
I4078
sVthin french bread
p3333
I5262
sVliquid taste
p3334
I3270
sVlow-fat yogurt
p3335
I3355
sVfresh broccoli
p3336
I1891
sVlow-sodium
p3337
I3356
sVcherry tomato
p3338
I858
sVsazon
p3339
I4578
sVfruit cocktail fine
p3340
I2146
sVcold strong coffee
p3341
I1112
sVlarge egg beaten
p3342
I3007
sVsmall fresh button mushroom
p3343
I4798
sVtexas
p3344
I5216
sVstar-shaped
p3345
I5045
sVlarge yellow bell small dice
p3346
I3143
sVavocado honey
p3347
I152
sVlunch
p3348
I3375
sVgerman stone ground mustard taste
p3349
I2214
sVcraisins
p3350
I1219
sVcream tomato soup concentrate
p3351
I1245
sVbutter frozen
p3352
I654
sVhormel chili bean
p3353
I2634
sVrock
p3354
I4453
sVangel food cake
p3355
I86
sVal fresco natural sweet italian chicken sausage
p3356
I21
sVmedium onion
p3357
I3498
sVhot pepper sauce valentina
p3358
I2675
sVsausage choice
p3359
I4568
sVbag frozen mexican-style corn
p3360
I198
sVbean traditional variety
p3361
I282
sVlarge red onion finely
p3362
I3103
sVdutch
p3363
I1509
sVprepared dijon mustard
p3364
I4176
sVroast turkey bite-sized piece
p3365
I4449
sVwarm water degree degree c
p3366
I5635
sVromano
p3367
I4466
sVcalifornia
p3368
I703
sVwheat chex cereal
p3369
I5664
sVlarge red grapefruit
p3370
I3099
sVcheese soup
p3371
I845
sVdrizzling
p3372
I1455
sVvegetable stock
p3373
I5585
sVpepperoni
p3374
I3960
sVcheese
p3375
I836
sVwheat pastry flour
p3376
I5668
sVpillsbury
p3377
I4004
sVnutritional
p3378
I3718
sVlean ground beef turkey
p3379
I3174
sVsun-dried tomato paste
p3380
I5122
sVear fresh sweet corn kernel cob
p3381
I1518
sVcheesy
p3382
I849
sVfluid warm water
p3383
I1828
sVzucchini thick
p3384
I5823
sVground beef
p3385
I2405
sVpastry double-crust pie footnote recipe link
p3386
I3900
sVfrozen country style potato
p3387
I2089
sVgochujang
p3388
I2249
sVvitamin c powder
p3389
I5619
sVskinless chicken thigh
p3390
I4757
sVlarge bell cut wedge
p3391
I2981
sVpacket yellow mustard
p3392
I3849
sVstalk celery thinly
p3393
I5040
sVblack peppercorn
p3394
I385
sVsolid pack pumpkin
p3395
I4912
sVfresh mushroom stem
p3396
I1979
sVhot pepper sauce e tabasco taste
p3397
I2671
sVcoconut
p3398
I1076
sVwhite vinegar taste
p3399
I5724
sVlasagna noodle
p3400
I3154
sVlarge jalapeno
p3401
I3055
sVkorean chili pepper flake
p3402
I2947
sVdredging
p3403
I1453
sVpastry
p3404
I3897
sVnavel orange trim peel membrane cut
p3405
I3680
sVcoarse kosher salt
p3406
I1032
sVmild pork sausage jimmy dean
p3407
I3562
sVdry-roasted peanut
p3408
I1506
sVcastor
p3409
I788
sVgreen onion thinly additional garnish
p3410
I2375
sVbottle italian salad
p3411
I495
sVvegan carob chip
p3412
I5574
sVdanish blue cheese
p3413
I1355
sVcubed black forest ham
p3414
I1317
sVgruyere cheese cubed
p3415
I2464
sVfinely flat-leaf parsley
p3416
I1688
sVparmigiano-reggiano
p3417
I3877
sVdemerara sugar
p3418
I1402
sVburgundy wine
p3419
I640
sVpacket sazon coriander achiote goya
p3420
I3845
sVhoney ham
p3421
I2619
sVfresh thai basil
p3422
I2026
sVcuban
p3423
I1306
sVextra-virgin
p3424
I1592
sVfillet sea bass
p3425
I1655
sVsoy margarine
p3426
I4936
sVripe pear
p3427
I4441
sVorzo pasta
p3428
I3818
sVbasil leaf finely
p3429
I263
sVfactory-washed
p3430
I1599
sVthick-cut bacon
p3431
I5242
sVpecan garnish
p3432
I3932
sVbar chocolate english toffee
p3433
I245
sVsmall sweet onion
p3434
I4861
sVdice
p3435
I1412
sVhillshire farm sausage
p3436
I2596
sVblack
p3437
I372
sVromano cheese
p3438
I4467
sVred onion strip
p3439
I4343
sVhead cauliflower cut small floret
p3440
I2537
sVhungarian
p3441
I2691
sVorange-peach-mango juice
p3442
I3803
sVfresh cilantro garnish
p3443
I1904
sVgoat cheese
p3444
I2245
sVfrench baguette lengthwise
p3445
I1856
sVstrawberry jell-o
p3446
I5078
sVgel
p3447
I2206
sVvanilla wafer crumb
p3448
I5565
sVmexican-style cheese
p3449
I3541
sVstrip orange zest
p3450
I5091
sVkernel
p3451
I2918
sVchocolate confectioner
p3452
I948
sVtube polenta
p3453
I5430
sVtomato thickly
p3454
I5383
sVworcestershire sauce
p3455
I5763
sVtuna steak
p3456
I5433
sVbeef sirloin cut cube
p3457
I317
sVsweet cherry
p3458
I5138
sVall-purpose baking mix
p3459
I40
sVsalt grind pepper
p3460
I4537
sVwhite bread lightly
p3461
I5689
sVwhite cake mix
p3462
I5692
sVwhole-wheat bread small crumb
p3463
I5735
sVuncooked brown rice
p3464
I5473
sVjalapeno pepper stem
p3465
I2793
sVsmall pasta shell
p3466
I4833
sVground almond
p3467
I2403
sVegg white beaten
p3468
I1534
sVfrozen corn kernel
p3469
I2088
sVtub
p3470
I5424
sVmilk chocolate chip
p3471
I3568
sVfinely shredded romano cheese
p3472
I1727
sVshortening
p3473
I4688
sVcount hawaiian bread roll
p3474
I1202
sVsmall head napa cabbage
p3475
I4815
sVsun-dried tomato oil-packed
p3476
I5120
sVhoisin sauce
p3477
I2603
sVsquash
p3478
I5023
sVgraham cracker crust
p3479
I2288
sVwild rice
p3480
I5740
sVrump roast
p3481
I4495
sVcilantro sprig
p3482
I1002
sVground pork breakfast sausage
p3483
I2443
sVgarlic-flavor bite-size bagel chip regular-size bagel chip broken piece
p3484
I2200
sVextra-large egg
p3485
I1584
sVpeach heavy syrup
p3486
I3906
sVblack bean retain liquid
p3487
I377
sVn't
p3488
I3669
sVpork shoulder cut chunk
p3489
I4105
sVlarge mango
p3490
I3061
sVfinely macadamia nut
p3491
I1712
sVmayonnaise salad
p3492
I3445
sVpace taco mix
p3493
I3828
sVcluster
p3494
I1027
sVpre-baked mini phyllo dough shell
p3495
I4152
sVgreen bell
p3496
I2334
sVlobster tail
p3497
I3323
sVprotein
p3498
I4215
sVmacadamia
p3499
I3379
sVsmall ton wrapper
p3500
I4865
sVsmall black olive
p3501
I4788
sVpad
p3502
I3850
sVo'brien
p3503
I3720
sVpam
p3504
I3853
sVpan
p3505
I3854
sVcoarsely kale
p3506
I1061
sVoil
p3507
I3732
sVpico gallo
p3508
I3987
sVricotta cheese
p3509
I4430
sVcream cheese room temperature
p3510
I1235
sVhungarian hot pepper
p3511
I2692
sVground savory
p3512
I2448
sVhard egg roughly
p3513
I2503
sVdrain
p3514
I1452
sVhead iceberg lettuce leaf
p3515
I2545
sVfresh corn kernel cob
p3516
I1913
sVcoarse salt ground black pepper taste
p3517
I1035
sVbottle
p3518
I476
sVgyoza potsticker wrapper
p3519
I2472
sValfalfa
p3520
I30
sVapricot preserve
p3521
I111
sVunpeeled potato
p3522
I5514
sVshredded hash potato simply
p3523
I4697
sVcreole tony chachere 's
p3524
I1267
sVflavor
p3525
I1766
sVherb-seasoned stuffing mix
p3526
I2582
sVcumin seed
p3527
I1335
sVdry italian salad mix
p3528
I1477
sVcayenne
p3529
I799
sVice water
p3530
I2700
sVgrit
p3531
I2398
sVal fresco sweet apple chicken sausage
p3532
I24
sVchocolate-covered
p3533
I963
sVgreen chilies
p3534
I2357
sVbanana thinly
p3535
I239
sVonion ring
p3536
I3775
sVred grape tomato
p3537
I4329
sVpacket instant banana-flavored oatmeal
p3538
I3842
sVquick-cooking oat
p3539
I4251
sVred onion thinly
p3540
I4345
sVmulti grain wrap
p3541
I3649
sVfresh curry leaf
p3542
I1917
sVdiced swiss cheese
p3543
I1416
sVfontina cheese
p3544
I1837
sVbottle catalina salad
p3545
I484
sVtomato green pepper onion
p3546
I5370
sVcrouton
p3547
I1296
sVloosely packed torn fresh spinach leaf
p3548
I3339
sVhead cauliflower floret
p3549
I2538
sVbroken
p3550
I562
sVangel hair pasta
p3551
I89
sVfrozen southern-style hash potato
p3552
I2131
sVhead iceberg lettuce torn bite-sized piece
p3553
I2547
sVquinoa
p3554
I4253
sVisland
p3555
I2744
sVlow-sodium soy sauce
p3556
I3360
sVspring roll wrapper
p3557
I5006
sVmedium onion thinly
p3558
I3505
sVmixed
p3559
I3609
sVzucchini squash
p3560
I5821
sVbay scallop
p3561
I274
sVboneless skinless breast cut thin strip
p3562
I458
sVsmall white onion
p3563
I4868
sVspicy italian sausage
p3564
I4970
sVunsweetened cocoa
p3565
I5536
sVred onion
p3566
I4336
sVfresh jalapeno chilies
p3567
I1948
sVstrip
p3568
I5088
sVsweet bread roll
p3569
I5137
sVanise
p3570
I90
sVchicken thigh skin
p3571
I897
sVwonton wrapper
p3572
I5753
sVspicy
p3573
I4965
sVcod fillet
p3574
I1086
sVlarge lime
p3575
I3060
sVwonton
p3576
I5752
sVbaby spinach
p3577
I166
sVpiece thin-sliced boneless skinless chicken breast
p3578
I4003
sVbutter bean
p3579
I646
sVspice
p3580
I4960
sVinstant coffee granule
p3581
I2722
sVtoasted asian sesame oil
p3582
I5346
sVrice vermicelli
p3583
I4422
sVbow-tie
p3584
I516
sVstrawberry
p3585
I5074
sVbaked bean pork
p3586
I212
sVfreshly lemon juice
p3587
I2049
sVhot italian pork sausage
p3588
I2654
sVdeep
p3589
I1384
sVclub soda
p3590
I1026
sVground turkey
p3591
I2453
sVgreen onion finely
p3592
I2369
sVfield
p3593
I1645
sVlow-fat creamy salad miracle whip light
p3594
I3346
sVthinly provolone cheese
p3595
I5309
sVgreek cavender 's taste
p3596
I2320
sVrotisserie chicken
p3597
I4482
sVseedless red raspberry jam
p3598
I4617
sVbrandy
p3599
I522
sVsardine
p3600
I4559
sVdutch process cocoa powder
p3601
I1510
sVbasil taste
p3602
I265
sVchocolate thin mint
p3603
I962
sVfluid bottle beer
p3604
I1793
sVfinely celery
p3605
I1673
sVdijon mustard
p3606
I1421
sVground chipotle chile powder
p3607
I2418
sVcreole mustard
p3608
I1265
sVsalmon fillet
p3609
I4523
sVground black pepper taste
p3610
I2409
sVisraeli-style pickle
p3611
I2746
sVhot dog bun split
p3612
I2649
sVbunch fresh spinach thinly
p3613
I622
sVsashimi
p3614
I4561
sVdinner roll
p3615
I1435
sVwhite bread
p3616
I5684
sVpepperidge farm classic soft hoagie roll sesame seed
p3617
I3949
sVfrozen cherry
p3618
I2084
sVpremium
p3619
I4159
sVtomato green chile pepper partially
p3620
I5367
sVboneless pork loin roast
p3621
I445
sVsquare semi-sweet chocolate
p3622
I5016
sVred seedless grape
p3623
I4366
sVmultigrain bagel split
p3624
I3651
sVboiling water
p3625
I411
sVmedium zucchini cut
p3626
I3529
sVramen
p3627
I4263
sVreal bacon bit
p3628
I4299
sVnon-dairy creamer
p3629
I3696
sVsea scallop
p3630
I4593
sVhawaiian bread roll king 's split
p3631
I2522
sVtomato coarsely
p3632
I5358
sVbanana cut chunk
p3633
I235
sVonion juice
p3634
I3771
sVhickory barbeque sauce
p3635
I2588
sVinstant potato flake bud
p3636
I2732
sVdry fettuccini noodle
p3637
I1473
sVhoney ham finely
p3638
I2620
sVburger
p3639
I638
sVlink
p3640
I3259
sVextra-virgin coconut oil
p3641
I1593
sVlarge onion coarsely
p3642
I3068
sVfresh peach nectarine blueberry combination fruit frozen berry
p3643
I1994
sVlarge cucumber cut cube
p3644
I3000
sVfresh tarragon
p3645
I2024
sVyellow cornmeal
p3646
I5785
sVfresh jalapeno pepper taste
p3647
I1953
sVhard-cooked egg cut lengthwise
p3648
I2511
sVwhite rice flour
p3649
I5715
sVmaraschino cherry
p3650
I3410
sVlasagna
p3651
I3153
sVkraft parmesan cheese
p3652
I2958
sVchicken cut cube
p3653
I879
sVfluid bottle hot chicken wing sauce
p3654
I1799
sVeye
p3655
I1597
sVreduced-fat coconut milk
p3656
I4381
sVwhite cheddar cheese
p3657
I5693
sVsmoke-flavored almond finely
p3658
I4878
sVfresh cilantro leaf
p3659
I1905
sVpouch campbell 's dry onion soup recipe mix
p3660
I4145
sVnon-fat cottage cheese
p3661
I3698
sVwatermelon ball
p3662
I5648
sVbottle caesar salad
p3663
I483
sVroughly arugula taste
p3664
I4485
sVsoup base bouillon
p3665
I4921
sVhour
p3666
I2688
sVhoney taste
p3667
I2625
sVton wrapper
p3668
I5390
sVground chipotle chile pepper
p3669
I2417
sVdew
p3670
I1406
sVfrozen sweet pea
p3671
I2140
sVpesto basil sauce
p3672
I3966
sVcrispy rice cereal coarsely
p3673
I1287
sVkosher salt
p3674
I2950
sVhamburger
p3675
I2495
sVchicken cut
p3676
I878
sVsharp
p3677
I4656
sVuncooked green lentil
p3678
I5481
sVflat-leaf
p3679
I1764
sVthinly onion
p3680
I5303
sVground breast
p3681
I2411
sVsprig
p3682
I4989
sVbraeburn
p3683
I518
sVpetite
p3684
I3970
sVhoney-cured
p3685
I2626
sVvanilla soy milk
p3686
I5562
sVcoarsely walnut
p3687
I1065
sVsesame-seed
p3688
I4649
sVhot pepper sauce
p3689
I2668
sVprepared yellow mustard
p3690
I4203
sVthinly apple
p3691
I5281
sVbunch swiss chard
p3692
I637
sVturmeric
p3693
I5453
sVred pepper flake
p3694
I4348
sVgreen onion cut piece
p3695
I2367
sVsmall shrimp taste
p3696
I4857
sVsummer squash diagonally thick
p3697
I5115
sVcoarse salt taste
p3698
I1036
sVdough
p3699
I1450
sVred jalapeno
p3700
I4331
sVfresh flat-leaf parsley taste
p3701
I1922
sVbottle hot pepper sauce
p3702
I491
sVpecan sandies
p3703
I3934
sVsodium
p3704
I4900
sVbag tortilla chip
p3705
I206
sVsherry wine
p3706
I4678
sVsalad oil
p3707
I4516
sVgood
p3708
I2257
sVkosher salt freshly ground black pepper taste
p3709
I2951
sVthinly mesquite turkey breast
p3710
I5301
sVlarge red bell small dice
p3711
I3098
sVuncooked medium shrimp
p3712
I5495
sVspicy chili bean
p3713
I4968
sVgarlic salt taste
p3714
I2193
sVhouse
p3715
I2689
sVfish
p3716
I1744
sVhard
p3717
I2500
sVorange roughy fillet
p3718
I3795
sVlarge carrot finely
p3719
I2992
sVpork steak
p3720
I4109
sVcarrot cut fourth lengthwise thin strip
p3721
I770
sVtamarind
p3722
I5185
sVegg white lightly
p3723
I1536
sVhalloween-colored
p3724
I2485
sVcandy-coated milk chocolate piece m 's
p3725
I727
sVsmall pearlini fresh mozzarella ball
p3726
I4836
sVrib celery coarsely
p3727
I4412
sVgranola
p3728
I2302
sVred potato bite-size piece
p3729
I4358
sVlarge cucumber
p3730
I2999
sVstrawberry coarsely
p3731
I5075
sVgreen onion top
p3732
I2376
sVpoppy seed
p3733
I4084
sVwhite chocolate baking square
p3734
I5695
sVguacamole mix
p3735
I2466
sVchicken tender
p3736
I895
sVsweet hungarian paprika
p3737
I5143
sVangel food cake mix
p3738
I88
sVvalentina
p3739
I5548
sVchai
p3740
I819
sVapple cider
p3741
I97
sVbottle barbecue sauce
p3742
I478
sVchipotle pepper adobo sauce
p3743
I937
sVbacon bit
p3744
I170
sVcayenne pepper add
p3745
I801
sVflank steak steak
p3746
I1756
sVbolillo
p3747
I414
sVthick french bread
p3748
I5233
sVred onion cut strip
p3749
I4340
sVfresh basil leaf
p3750
I1882
sVsmall ball fresh mozzarella cheese bocconcini
p3751
I4784
sVbeef stew meat coarse ground chili beef
p3752
I328
sVglycerin
p3753
I2242
sVpart
p3754
I3882
sVminiature sausage link
p3755
I3594
sVfrozen edamame green soybean
p3756
I2094
sVpork chop thick
p3757
I4095
sVavocado thinly
p3758
I154
sVsweet potato
p3759
I5154
sVpeanut butter piece
p3760
I3914
sVjar pineapple fruit preserve
p3761
I2848
sVroughly
p3762
I4484
sVmountain
p3763
I3638
sVwhite hominy
p3764
I5702
sVfrozen spinach dry
p3765
I2134
sVcold butter cut
p3766
I1104
sVcaesar
p3767
I693
sVcream cheese cold
p3768
I1233
sVzucchini
p3769
I5813
sVlarge onion ring
p3770
I3076
sVdry buttermilk powder
p3771
I1463
sVsalmon
p3772
I4519
sVmango cut chunk
p3773
I3394
sVmaraschino cherry stem
p3774
I3412
sVchard
p3775
I824
sVfrozen pineapple chunk
p3776
I2120
sVbutterscotch chip
p3777
I679
sVcardamom pod
p3778
I763
sVmeat tenderizer
p3779
I3459
sVfinely dill pickle
p3780
I1686
sVhazelnut
p3781
I2525
sVlarge tomato cut cube
p3782
I3138
sVbottle blue cheese
p3783
I481
sVlean ground turkey
p3784
I3176
sVfine
p3785
I1662
sVandouille sausage lengthwise
p3786
I83
sVloaf french bread cut
p3787
I3297
sVgarlic chili sauce
p3788
I2173
sVham coarsely
p3789
I2490
sVfirm tomato
p3790
I1739
sVfrench dressing
p3791
I1862
sVfuji apple
p3792
I2152
sVjar real bacon bit
p3793
I2852
sVmein
p3794
I3530
sVwhite bean
p3795
I5683
sVlarge bok leaf finely
p3796
I2982
sVegg beaten water
p3797
I1523
sVbatter
p3798
I268
sVbreast
p3799
I542
sVsilk
p3800
I4712
sVcoconut oil liquid
p3801
I1082
sVcrabmeat
p3802
I1214
sVboneless pork roast cut cube
p3803
I448
sVpickle relish
p3804
I3982
sVsmoke-flavored
p3805
I4877
sVvine
p3806
I5604
sVfluid bottle mexican beer
p3807
I1802
sVindividual
p3808
I2710
sVtender
p3809
I5209
sVjalapeno pepper finely taste
p3810
I2786
sVladyfinger
p3811
I2961
sVredhot
p3812
I4374
sVhalved
p3813
I2487
sVsalsa drain equal salsa runny
p3814
I4530
sVground sage
p3815
I2446
sVsliced italian sausage
p3816
I4770
sVwooden skewer water minute
p3817
I5760
sVdill pickle spear
p3818
I1431
sVchampagne
p3819
I822
sVgarlic roughly
p3820
I2191
sVuncooked long grain rice
p3821
I5489
sVvanilla nonfat yogurt
p3822
I5559
sVvine-ripened tomato small
p3823
I5608
sVfresh chive green onion
p3824
I1899
sVfresh strawberry leaf
p3825
I2021
sVwhite brown rice
p3826
I5690
sVfully-cooked bone-in ham
p3827
I2158
sVcubed
p3828
I1316
sVrock lobster tail
p3829
I4454
sVuntreated cedar plank
p3830
I5547
sVshredded iceberg lettuce
p3831
I4698
sVfresh spinach leaf
p3832
I2015
sVfrozen mixed pea carrot
p3833
I2109
sVraspberry candy oil
p3834
I4279
sVsimply
p3835
I4715
sVplain tortilla chip
p3836
I4061
sVfeta cheese reduced-fat
p3837
I1636
sVhellmann
p3838
I2571
sVthinly pepperoni
p3839
I5305
sVyellow food coloring
p3840
I5786
sVsheet nori dry seaweed cut strip
p3841
I4667
sVmonosodium glutamate
p3842
I3624
sVhoney slightly
p3843
I2624
sVjuice jalapeno
p3844
I2894
sVranch-style
p3845
I4268
sVjell-o
p3846
I2875
sVfresh cilantro finely
p3847
I1903
sVsoba
p3848
I4895
sVsolid
p3849
I4911
sVgrainy
p3850
I2295
sVrustic italian sourdough bread
p3851
I4503
sVgreen maraschino cherry
p3852
I2363
sVzucchini cut chunk
p3853
I5816
sVsriracha
p3854
I5026
sVgoya golden cooking wine
p3855
I2272
sVstrip bacon
p3856
I5089
sVdecoration
p3857
I1381
sVpaprika garnish
p3858
I3869
sVblack bean liquid
p3859
I376
sVblack pepper taste
p3860
I384
sVdry corn muffin mix jiffy
p3861
I1465
sVartichoke bite-size piece
p3862
I121
sVthyme leaf
p3863
I5329
sVbunch fresh cilantro
p3864
I610
sVpurpose
p3865
I4242
sVgreen bell wide strip
p3866
I2349
sVpineapple chunk
p3867
I4020
sVonion cut chunk
p3868
I3764
sVswiss
p3869
I5164
sVenchilada sauce
p3870
I1557
sVstone ground flour
p3871
I5070
sVfinely ginger
p3872
I1701
sVsnow
p3873
I4890
sVshape
p3874
I4655
sVsweet corn
p3875
I5140
sVfrozen hash potato
p3876
I2100
sVcut
p3877
I1346
sVitalian bread crumb
p3878
I2750
sVsoft bread crumb
p3879
I4905
sVvegetable oil frying
p3880
I5581
sVbag baby spinach
p3881
I190
sVbulb garlic clove
p3882
I582
sVsnap
p3883
I4889
sVchicken split tip
p3884
I893
sVwhite kidney cannellini bean
p3885
I5703
sVcornish
p3886
I1189
sVgruyere cheese
p3887
I2463
sVnonfat sour cream
p3888
I3710
sVbit
p3889
I361
sVadobo sauce chipotle pepper taste
p3890
I17
sVbag milk chocolate candy kiss
p3891
I200
sVhome-style
p3892
I2607
sVbamboo
p3893
I227
sVground veal
p3894
I2457
sVfinely green bell pepper
p3895
I1702
sVpecan coarsely
p3896
I3929
sVfillet sole
p3897
I1656
sVlarge zucchini thinly
p3898
I3151
sVlong grain rice
p3899
I3331
sVtomato clam juice cocktail
p3900
I5356
sVlars
p3901
I3152
sVfrozen hash potato cube
p3902
I2101
sVoat cereal
p3903
I3723
sVred raspberry jam seed
p3904
I4363
sVtapioca flour
p3905
I5191
sVlarge grapefruit cut
p3906
I3036
sVlard
p3907
I2968
sVpea
p3908
I3904
sVinstant coffee powder
p3909
I2724
sVbag mixed salad green
p3910
I202
sVsugar cookie dough
p3911
I5106
sVmedium tomato cut medium dice
p3912
I3525
sVjar grape jelly
p3913
I2823
sVbanana pepper
p3914
I238
sVfirmly sugar
p3915
I1743
sVgreen bell thinly
p3916
I2347
sVground sumac
p3917
I2450
sVgoody
p3918
I2258
sVoatmeal
p3919
I3727
sVbasting
p3920
I267
sVjimmy
p3921
I2887
sVleek white part
p3922
I3181
sVchocolate instant breakfast mix
p3923
I954
sVhard-boiled
p3924
I2507
sVrusset potato thinly
p3925
I4500
sVboneless breast
p3926
I436
sVjalapeno bacon cut
p3927
I2777
sVyellow paste food
p3928
I5793
sVcarton fat-free low-sodium chicken broth
p3929
I785
sVfine salt taste
p3930
I1667
sVhomemade
p3931
I2609
sVcornish game hen
p3932
I1190
sVromaine heart lengthwise
p3933
I4463
sVskinless boneless chicken thigh
p3934
I4753
sVall-beef hot dog
p3935
I37
sVmini semisweet chocolate chip
p3936
I3588
sVcandy sprinkle
p3937
I723
sVfrozen pizza dough
p3938
I2121
sVall-purpose flour dusting
p3939
I45
sVfat cottage cheese
p3940
I1610
sVjumbo
p3941
I2898
sVorange bell
p3942
I3781
sVsingle
p3943
I4716
sVbulk pork breakfast sausage
p3944
I591
sVhalibut steak
p3945
I2484
sVfresh lime
p3946
I1960
sVfreshly-ground black pepper taste
p3947
I2063
sVfinely ground graham cracker crumb
p3948
I1706
sVsalmon fillet skin bone
p3949
I4526
sVall-beef
p3950
I36
sVmayonnaise
p3951
I3441
sVbrushing
p3952
I573
sVcayenne pepper taste
p3953
I803
sVsmall head green cabbage
p3954
I4813
sVshallot finely
p3955
I4651
sVprepared
p3956
I4160
sVsemisweet chocolate chip bar bite-size chunk
p3957
I4629
sVdaikon
p3958
I1352
sVgarlic cheese
p3959
I2172
sVcooked
p3960
I1148
sVjamaican jerk
p3961
I2799
sVsandwich roll split
p3962
I4556
sVmedium shrimp
p3963
I3519
sVtube
p3964
I5428
sVoat quaker oat
p3965
I3726
sVbaby bella cremini mushroom
p3966
I157
sVorange cake mix
p3967
I3783
sVpotsticker
p3968
I4143
sVmild salsa
p3969
I3563
sVlog goat cheese
p3970
I3325
sVuncooked grit
p3971
I5482
sVpeanut
p3972
I3910
sVgranular
p3973
I2303
sVmedium bell cut medium dice
p3974
I3472
sVasiago parmesan cheese
p3975
I132
sVingredient
p3976
I2714
sVshredded mexican four-cheese blend
p3977
I4702
sVinch-thick boneless pork chop
p3978
I2709
sVjar cocktail sauce
p3979
I2818
sVchicken skin cut piece
p3980
I892
sVstrawberry pureed
p3981
I5080
sVbalsamic vinaigrette taste
p3982
I224
sVcrispy rice cereal square
p3983
I1288
sVred pepper hummus
p3984
I4351
sVpeanut butter chip
p3985
I3912
sVquaker
p3986
I4243
sVhamburger bun
p3987
I2496
sVbrandy-based
p3988
I523
sVwhite cooking wine
p3989
I5698
sVgiblet
p3990
I2220
sVinstant coffee
p3991
I2721
sVmild paprika
p3992
I3558
sVgranny smith apple thick
p3993
I2300
sVsmall onion coarsely
p3994
I4825
sVfinely parmigiano-reggiano cheese
p3995
I1714
sVhead cauliflower broken floret
p3996
I2535
sVinstant hot chocolate mix
p3997
I2727
sVnacho
p3998
I3670
sVpineapple tidbit
p3999
I4027
sVcocktail wiener
p4000
I1073
sVegg white stiffly beaten
p4001
I1538
sVoil-cured black olive
p4002
I3736
sVbreast strip
p4003
I547
sVsauteing
p4004
I4575
sVbean dip
p4005
I279
sVstale white bread
p4006
I5032
sVcrispy rice noodle garnish
p4007
I1290
sVchai tea
p4008
I820
sVfresh oregano
p4009
I1986
sVliqueur
p4010
I3265
sVvegetable shortening deep frying
p4011
I5584
sVbacon cut strip
p4012
I179
sVlima
p4013
I3239
sVlime
p4014
I3241
sVuncle ben 's ready rice long grain wild
p4015
I5468
sVprepared basil pesto sauce
p4016
I4164
sVcoarse black pepper
p4017
I1029
sVparmesan cheese bread crumb
p4018
I3873
sVpasta spiral
p4019
I3893
sVmeaty pork loin sparerib
p4020
I3464
sVfresh steak rib-eye sirloin
p4021
I2018
sVlime garnish
p4022
I3243
sVsalmon cut thin
p4023
I4522
sVwhipped cream cheese
p4024
I5677
sVf
p4025
I1598
sVyellow bell
p4026
I5776
sVal fresco spinach feta chicken sausage
p4027
I23
sVtub vanilla yogurt
p4028
I5427
sVcooked black bean
p4029
I1149
sVfish sauce
p4030
I1745
sVtandoori masala
p4031
I5189
sVextra-sharp
p4032
I1590
sVpizza cut square
p4033
I4045
sVlamb
p4034
I2964
sVforest
p4035
I1841
sVfeta
p4036
I1634
sVjuice fresh lime
p4037
I2893
sVstock
p4038
I5067
sVcardamom
p4039
I762
sVthick-cut pork chop
p4040
I5246
sVbunch fresh parsley coarsely
p4041
I618
sVbag fresh spinach
p4042
I196
sVgarlic taste
p4043
I2196
sVliner
p4044
I3254
sVstale italian bread
p4045
I5030
sVuncooked long-grain rice
p4046
I5491
sVthin fresh ginger root
p4047
I5263
sVolive oil frying
p4048
I3754
sVwhite bread cubed
p4049
I5687
sVchicken thigh
p4050
I896
sVlarge cucumber thinly
p4051
I3003
sVhard egg
p4052
I2502
sVenvelope active dry yeast
p4053
I1569
sVbutternut
p4054
I674
sVbunch
p4055
I595
sVfrench-fried
p4056
I1871
sVlarge fresh mushroom
p4057
I3020
sVprepared cheese tortellini
p4058
I4168
sVlobster meat bite-sized piece
p4059
I3322
sVbutter piece
p4060
I658
sVtomato puree
p4061
I5377
sVblue cheese room temperature
p4062
I400
sVgreen plantain
p4063
I2386
sVlarge banana chunk
p4064
I2975
sVday
p4065
I1372
sVpork roast
p4066
I4100
sVlentil liquid
p4067
I3209
sVroughy
p4068
I4489
sVinstant butterscotch pudding mix
p4069
I2718
sVvanilla wafer
p4070
I5563
sVcider
p4071
I996
sVtilapia fillet
p4072
I5337
sVdill finely
p4073
I1428
sVloaf white bread crust
p4074
I3317
sVlight cream
p4075
I3223
sVloaf pumpernikel rye bread
p4076
I3310
sVsmall acorn squash
p4077
I4781
sVorange-mango juice blend
p4078
I3801
sVsliced peach light syrup
p4079
I4771
sVlarge beet
p4080
I2979
sVlentil
p4081
I3208
sVsmall mini pretzel
p4082
I4821
sVthinly white onion
p4083
I5318
sVcream mushroom soup
p4084
I1240
sVfresh bean sprout
p4085
I1885
sVoriental
p4086
I3811
sVhard-boiled egg
p4087
I2508
sVred
p4088
I4309
sVunsalted sunflower seed
p4089
I5531
sVfrank
p4090
I1845
sVsalami
p4091
I4518
sVground beef chuck
p4092
I2406
sVsalt-free
p4093
I4543
sVhead broccoli cut floret
p4094
I2529
sVboneless skinless breast tender
p4095
I459
sVbite-size cheese cracker
p4096
I365
sVjar mango chutney
p4097
I2830
sVlarge skinless boneless breast medallion
p4098
I3120
sVcrispy wheat cereal square
p4099
I1291
sVapricot sauce
p4100
I112
sVmedium tomato cut wedge
p4101
I3526
sVretain
p4102
I4407
sVfresh frozen cranberry
p4103
I1925
sVancient
p4104
I79
sVbreast cut bite piece
p4105
I545
sVjar creamy salad e miracle whip
p4106
I2820
sVjif creamy butter
p4107
I2883
sVfat-free cream cheese
p4108
I1618
sVchorizo sausage
p4109
I977
sVreduced-fat sour cream daisy
p4110
I4390
sVpita cut
p4111
I4040
sVfoamy
p4112
I1832
sVlite soy sauce
p4113
I3273
sVmanicotti pasta
p4114
I3398
sVprune
p4115
I4221
sVfrozen spinach liquid
p4116
I2135
sVmultigrain
p4117
I3650
sVthick-cut bacon cut crosswise piece
p4118
I5243
sVchicken drumstick
p4119
I883
sVfreshly ginger
p4120
I2046
sVcooking oil
p4121
I1156
sVparmesan cheese thinly
p4122
I3876
sVred bell coarsely
p4123
I4312
sVkraft mozzarella cheese
p4124
I2957
sVuntoasted pecan
p4125
I5544
sVapple cider vinegar
p4126
I99
sVwheat flour
p4127
I5665
sVmix
p4128
I3607
sVpepper-jack cheese finely
p4129
I3945
sVparsley garnish
p4130
I3880
sVmini pretzel
p4131
I3584
sVcrisco
p4132
I1278
sVzucchini cubed
p4133
I5814
sVvanilla frozen yogurt
p4134
I5556
sVlarge strawberry
p4135
I3127
sVherman
p4136
I2585
sVfresh medium jalapeno
p4137
I1967
sVfrozen prepared pie crust
p4138
I2124
sVoelek
p4139
I3731
sVmini phyllo tart shell
p4140
I3583
sVrequest
p4141
I4403
sVrapidrise
p4142
I4274
sVcrispy corn rice cereal
p4143
I1285
sVjar pepper
p4144
I2842
sVgreek seasoning
p4145
I2325
sVcatalina
p4146
I790
sVfrench baguette cut thick
p4147
I1853
sVsafflower
p4148
I4506
sVinstant cheddar cheese mix
p4149
I2719
sVchevre
p4150
I864
sVgrilled boneless skinless chicken thigh
p4151
I2395
sVcoloring
p4152
I1128
sVred potato
p4153
I4357
sVblack plum thinly
p4154
I386
sVcanadian bacon cut dice
p4155
I715
sVmatchstick-cut carrot
p4156
I3436
sVsteak sauce
p4157
I5051
sVred pepper taste
p4158
I4355
sVstarch
p4159
I5046
sVbeau
p4160
I285
sVsweet chili sauce
p4161
I5139
sVbean
p4162
I278
sVground taste
p4163
I2451
sVjicama
p4164
I2881
sVbunch cilantro finely
p4165
I601
sVseasoned salt lawry 's
p4166
I4603
sVfully kielbasa sausage piece
p4167
I2154
sVboneless beef rump cut cube
p4168
I435
sVpie crust
p4169
I3990
sVsmall tomato cut wedge
p4170
I4864
sVminced lemon zest taste
p4171
I3578
sVskinless boneless breast thick
p4172
I4746
sVamerican cheese piece
p4173
I65
sVpineapple tidbit juice
p4174
I4028
sVloaf crusty italian bread
p4175
I3287
sVthin cut steak
p4176
I5258
sVpork chop
p4177
I4094
sVsprig fresh thyme leaf
p4178
I5001
sVpoblano pepper
p4179
I4072
sVfinely green onion
p4180
I1704
sVmochiko glutinous rice flour
p4181
I3618
sVrice paper wrapper
p4182
I4421
sVcauliflower
p4183
I793
sVcorn tortilla chip broken
p4184
I1179
sVlemon cream icing
p4185
I3187
sVvermicelli pasta
p4186
I5598
sVhabanero
p4187
I2473
sVwhite wine vinegar
p4188
I5729
sVlemon pepper taste
p4189
I3198
sVcarrot thinly diagonal
p4190
I781
sVinstant
p4191
I2715
sVequal
p4192
I1577
sVthinly pepperoni sausage
p4193
I5306
sVkosher
p4194
I2948
sVtater
p4195
I5204
sVcilantro leaf
p4196
I1000
sVmarjoram
p4197
I3419
sVleek bulb cut lengthwise
p4198
I3179
sVthinly deli roast beef
p4199
I5288
sVshell-on
p4200
I4673
sVsemisweet chocolate chip
p4201
I4628
sVvanilla almond milk
p4202
I5551
sVlarge garlic coarsely
p4203
I3030
sVseasoned
p4204
I4600
sVrump
p4205
I4494
sVwhite rice
p4206
I5713
sVfresh rosemary leaf
p4207
I2007
sVmilk mozzarella cheese
p4208
I3569
sVal
p4209
I20
sVprepared chocolate cookie crumb crust
p4210
I4169
sVorange
p4211
I3780
sVbunch fresh basil leaf
p4212
I609
sVportabella
p4213
I4120
sVbulb
p4214
I580
sVlarge headless shrimp
p4215
I3054
sVblack-eyed pea
p4216
I390
sVmulti
p4217
I3648
sVfruit cocktail
p4218
I2145
sVboneless pork rib
p4219
I447
sVplain
p4220
I4049
sVportobello mushroom
p4221
I4126
sVthinly dark green savoy cabbage leaf
p4222
I5286
sVchive onion cream cheese
p4223
I940
sVsucrolose
p4224
I5104
sVau
p4225
I148
sVhoagie
p4226
I2597
sVsquid
p4227
I5024
sVfine herb
p4228
I1665
sVolive oil sauteing
p4229
I3756
sVsun-dried tomato pesto
p4230
I5123
sVthinly fresh basil leaf
p4231
I5292
sVdietz
p4232
I1417
sVhead iceberg lettuce
p4233
I2543
sVromaine lettuce leaf
p4234
I4464
sVmedium carrot coarsely
p4235
I3476
sVjar mayonnaise
p4236
I2835
sVkernals
p4237
I2917
sVunpeeled garlic clove
p4238
I5513
sVbeef broth
p4239
I294
sVground turkey sausage
p4240
I2455
sVvinaigrette
p4241
I5603
sVhead fresh broccoli
p4242
I2539
sVlemon cut wedge
p4243
I3188
sVgulden
p4244
I2469
sVfresh strawberry large berry cut
p4245
I2020
sVlarge carrot
p4246
I2988
sVbunch cilantro leaf finely
p4247
I603
sVadd
p4248
I11
sVghee
p4249
I2215
sVpersimmon
p4250
I3963
sVsmart
p4251
I4874
sVfresh cheese ravioli
p4252
I1894
sVpoblano chile pepper
p4253
I4071
sVchick
p4254
I868
sVsoft
p4255
I4904
sVitalian
p4256
I2747
sVfettuccini
p4257
I1641
sVdry milk powder
p4258
I1485
sVmascarpone cheese
p4259
I3433
sVfettuccine
p4260
I1638
sVhair
p4261
I2477
sVthick italian bread
p4262
I5235
sVfideo pasta
p4263
I1644
sVcarrot coarsely
p4264
I768
sVthinly swiss cheese
p4265
I5317
sVtenderizer
p4266
I5210
sVpizza crust dough
p4267
I4044
sVgreek olive
p4268
I2322
sVbottle zesty italian dressing
p4269
I506
sVsalt freshly ground taste
p4270
I4536
sVmandarin orange
p4271
I3390
sVthinly
p4272
I5280
sVsprig fresh rosemary garnish
p4273
I4997
sVsesame seed
p4274
I4645
sVlarge potato thick
p4275
I3094
sVlime cut wedge
p4276
I3242
sVskinless boneless breast piece
p4277
I4744
sVpork loin chop
p4278
I4097
sVflake
p4279
I1748
sVflaky
p4280
I1749
sVcotija cheese
p4281
I1196
sVpork tenderloin medallion
p4282
I4117
sVstrawberry yogurt
p4283
I5082
sVday-old bread
p4284
I1375
sVcustard
p4285
I1344
sVmarsala
p4286
I3424
sVlarge tomato cut
p4287
I3137
sVmazola
p4288
I3447
sVsweet onion thinly
p4289
I5148
sVfinely garlic
p4290
I1700
sVbrand
p4291
I521
sVextra-large shrimp
p4292
I1586
sVsprig watercress garnish
p4293
I5003
sValmond flour
p4294
I52
sVbun
p4295
I594
sVbag butter mix
p4296
I193
sVkraft
p4297
I2954
sVbud
p4298
I578
sVpartially
p4299
I3887
sVmorningstar
p4300
I3634
sVcontadina
p4301
I1145
sVthick boneless skin-on center-cut salmon fillet
p4302
I5224
sVday-old white bread
p4303
I1378
sVthinly green onion
p4304
I5297
sVpart-skim ricotta cheese
p4305
I3886
sVpie
p4306
I3989
sVhorseradish mustard
p4307
I2636
sVchile paste
p4308
I910
sVglutamate
p4309
I2235
sVcashew
p4310
I787
sVoat
p4311
I3721
sVwooden skewer water hour
p4312
I5759
sVfresh herb basil mint cilantro
p4313
I1942
sVsoy sauce kikkoman
p4314
I4940
sVloaf frozen bread dough
p4315
I3304
sVdeep dish frozen pie crust
p4316
I1385
sVprepared brown mustard
p4317
I4166
sVdeluxe
p4318
I1399
sVamerican cheese strip
p4319
I66
sVbaker
p4320
I214
sVmixed fruit
p4321
I3612
sVbaked
p4322
I211
sVpan-frying
p4323
I3855
sVfinely thai basil
p4324
I1728
sVlarge green onion thinly
p4325
I3045
sVbread third
p4326
I535
sVpinto bean
p4327
I4032
sVleaf fresh basil coarsely
p4328
I3160
sVrise
p4329
I4444
sVpoppyseed salad
p4330
I4088
sVmedium yam
p4331
I3527
sVjack
p4332
I2775
sVpacket dry brown gravy mix
p4333
I3835
sVtomato tortilla
p4334
I5385
sVchicken leg quarter
p4335
I888
sVorzo
p4336
I3817
sVground venison
p4337
I2458
sVhead iceberg torn bite piece
p4338
I2548
sValmond
p4339
I48
sVhard apple cider
p4340
I2501
sVfresh tilapia fillet
p4341
I2033
sVsmall red onion thinly
p4342
I4848
sVblue
p4343
I398
sVfava bean
p4344
I1628
sVwhite cake layer
p4345
I5691
sVfrozen broccoli
p4346
I2080
sVbeaten
p4347
I284
sVbaby carrot
p4348
I158
sVlarge skinless boneless chicken breast
p4349
I3121
sVunpeeled zucchini
p4350
I5516
sVjar apple jelly
p4351
I2806
sVlower-sodium
p4352
I3361
sVchili powder
p4353
I920
sVred bell cut thin matchstick
p4354
I4315
sVhead romaine lettuce bite piece
p4355
I2554
sVmarnier
p4356
I3423
sVwhite grit
p4357
I5701
sVfloret
p4358
I1778
sVchocolate-covered caramel candy
p4359
I964
sVmozzarella
p4360
I3639
sVsmokie
p4361
I4883
sVchicken liver
p4362
I889
sVtomato paste
p4363
I5376
sVskinless boneless breast
p4364
I4734
sVsnow pea
p4365
I4893
sVlukewarm water
p4366
I3369
sVyork
p4367
I5801
sVwhite yellow cheddar cheese
p4368
I5730
sVgreen onion white green part
p4369
I2378
sVcanola
p4370
I735
sVmild pepper jelly
p4371
I3559
sVginger paste
p4372
I2226
sVfrozen puff pastry
p4373
I2125
sVlow-fat mayonnaise
p4374
I3348
sVcayenne pepper
p4375
I800
sVmeaty
p4376
I3462
sVitalian-style hoagie bun
p4377
I2769
sVfrozen potato round
p4378
I2122
sVvirgin olive oil
p4379
I5614
sVsheet nori dry seaweed
p4380
I4666
sVphiladelphia cream cheese
p4381
I3974
sVnatural peanut butter taste
p4382
I3678
sVpepperidge
p4383
I3948
sVplain popcorn
p4384
I4059
sVranch-style dressing mix
p4385
I4270
sVpouch
p4386
I4144
sVshoot
p4387
I4683
sVpre-cooked
p4388
I4154
sVunbaked deep dish pie crust
p4389
I5458
sVturkey kielbasa cut diagonally
p4390
I5446
sVfinely jalapeno pepper
p4391
I1711
sVsalt white pepper taste
p4392
I4542
sVthick cut bacon
p4393
I5229
sVdecorative
p4394
I1382
sVdry linguini
p4395
I1484
sVlarge fresh sage leaf
p4396
I3023
sVpork tenderloin
p4397
I4112
sVbreast tenderloin
p4398
I548
sVfresh tomatillo
p4399
I2034
sVcotija
p4400
I1195
sVpork stew meat
p4401
I4111
sVcoconut milk
p4402
I1080
sVleaf fresh basil leaf finely
p4403
I3162
sVbanana cut
p4404
I234
sVanise liqueur pernod
p4405
I93
sVfresh corn kernals
p4406
I1911
sVmozzarella cheese bite-size cube
p4407
I3641
sVlump
p4408
I3370
sVtater tot
p4409
I5205
sVsalsa
p4410
I4529
sValmond extract
p4411
I51
sVcroissant
p4412
I1292
sVfresh jalapeno chile pepper finely
p4413
I1947
sVjimmy dean original hearty pork sausage crumbles
p4414
I2888
sVpoppyseed
p4415
I4086
sVsteak sauce e heinz
p4416
I5052
sVskinless boneless breast thickness
p4417
I4748
sVsprout
p4418
I5010
sVvanilla sandwich cooky
p4419
I5560
sVandouille sausage
p4420
I81
sVcream cheese spread onion chive
p4421
I1237
sVkikkoman teriyaki marinade sauce
p4422
I2938
sVcheddar mozzarella cheese
p4423
I829
sVlima bean
p4424
I3240
sVfinely fresh ginger root
p4425
I1695
sVapple finely
p4426
I102
sVfresh parsley
p4427
I1989
sVblackeye
p4428
I393
sVgarlic paste
p4429
I2185
sVpre-cooked ham
p4430
I4155
sVoat cereal cheerio
p4431
I3724
sVfinely cheese
p4432
I1675
sVchopped black olive
p4433
I970
sVcrunchy
p4434
I1300
sVchuck
p4435
I981
sVfilling
p4436
I1658
sVmilk chocolate
p4437
I3566
sVsmall carrot
p4438
I4790
sVthin-sliced green onion
p4439
I5279
sVpickled sweet hot pepper ring
p4440
I3984
sVdry white wine
p4441
I1502
sVwaffle
p4442
I5622
sVunbaked pie crust
p4443
I5459
sVlarge garlic taste
p4444
I3032
sVuncooked farfalle pasta
p4445
I5479
sVthick white bread
p4446
I5239
sVmedium raw shrimp tail
p4447
I3508
sVspray virgin olive oil
p4448
I4987
sVcreole
p4449
I1264
sVmozzarella cheese stick
p4450
I3643
sVstalk celery cut piece
p4451
I5037
sVcarcass
p4452
I761
sVfree
p4453
I1848
sVbunch green onion
p4454
I625
sVfully luncheon meat e spam
p4455
I2155
sVnon-fat
p4456
I3697
sVsprinkle jimmy
p4457
I5009
sVpeppermint candy cane
p4458
I3954
sVcolor food paste
p4459
I1126
sVbeef sirloin cut strip
p4460
I318
sVseashell pasta
p4461
I4598
sVsoda
p4462
I4897
sVbottom roast
p4463
I508
sVlarge fresh mushroom stem
p4464
I3021
sVprovolone cheese thinly
p4465
I4220
sVfrozen hatch mexico green chile pepper
p4466
I2102
sVbleu cheese
p4467
I397
sVchicken drumstick skin
p4468
I884
sVcalorie
p4469
I705
sVdry bread crumb
p4470
I1461
sVguinness
p4471
I2468
sVprovolone
p4472
I4217
sVtop
p4473
I5397
sVlicorice
p4474
I3216
sVtot
p4475
I5413
sVton
p4476
I5389
sVmuenster cheese
p4477
I3646
sVglucose
p4478
I2233
sVuncooked short-grain white rice
p4479
I5504
sVsugar taste
p4480
I5110
sVkalamata olive taste
p4481
I2908
sVdry kidney bean
p4482
I1480
sVsmall onion half-circles
p4483
I4830
sVtomato cut wedge
p4484
I5360
sVripe banana cut chunk
p4485
I4438
sVskinless boneless breast thick cut third
p4486
I4747
sVactive dry yeast bread machine yeast
p4487
I8
sVsmall peppermint candy cane
p4488
I4837
sVsalt pepper
p4489
I4540
sVskinless
p4490
I4730
sVraw
p4491
I4286
sVbeef sirloin steak
p4492
I321
sVshell
p4493
I4671
sVhead bite-size piece
p4494
I2528
sVreduced-fat cream cheese
p4495
I4382
sVitalian-blend
p4496
I2763
sVmedium sweet onion
p4497
I3523
sVhatch
p4498
I2518
sVmatchstick
p4499
I3434
sVbeef rib eye steak
p4500
I311
sVegg lightly
p4501
I1526
sVbanana lengthwise
p4502
I237
sVpeppercorn
p4503
I3946
sVcheese mexican blend cheese
p4504
I842
sVditalini
p4505
I1443
sVheavy whipping cream
p4506
I2566
sVgreen bell pepper coarsely
p4507
I2343
sVpineapple
p4508
I4018
sVpearl sugar decorative sugar
p4509
I3925
sVbottle ketchup
p4510
I497
sVdill seed
p4511
I1432
sVsage
p4512
I4510
sVspray pam
p4513
I4986
sVburgundy
p4514
I639
sVlime lemon juice
p4515
I3247
sVcolby cheese
p4516
I1097
sVpesto taste
p4517
I3968
sVchipotle
p4518
I931
sVcoarsely white chocolate
p4519
I1067
sVoil-packed sun-dried tomato cut strip
p4520
I3739
sVfluid
p4521
I1791
sVchicken cut strip
p4522
I881
sVfrying
p4523
I2149
sVmedium head garlic
p4524
I3496
sVlibby 's pure pumpkin
p4525
I3215
sVfresh lemon thyme
p4526
I1959
sVvanilla chip
p4527
I5552
sVbeef roast cut thick strip
p4528
I315
sVswiss cheese thinly
p4529
I5169
sVwhitefish
p4530
I5733
sVbeef tenderloin roast
p4531
I331
sVjumbo shrimp
p4532
I2903
sVnut
p4533
I3715
sVbite-size broccoli floret
p4534
I364
sVmedium gold potato
p4535
I3486
sVbeef brisket
p4536
I291
sVshallot lengthwise
p4537
I4652
sVcheese-flavored
p4538
I848
sVmedium red onion small dice
p4539
I3513
sVcarton broth
p4540
I783
sVmini pretzel stick
p4541
I3585
sVbavarian-style
p4542
I270
sVunsweetened pineapple juice
p4543
I5542
sVcajun
p4544
I698
sVpanko bread crumb
p4545
I3861
sVsmall fresh mozzarella ball
p4546
I4801
sVmicrowaveable
p4547
I3549
sVjar salsa
p4548
I2858
sVcoarsely ground black pepper
p4549
I1057
sVnonfat
p4550
I3704
sVbosc
p4551
I471
sVgoddess
p4552
I2251
sVplum tomato juice
p4553
I4068
sVchicken giblet
p4554
I887
sVchili bean hormel
p4555
I917
sVjelly
p4556
I2878
sVthin tomato
p4557
I5275
sVcandy dragee
p4558
I722
sVstuffed green olive
p4559
I5097
sVbeef hash
p4560
I308
sVpart-skim
p4561
I3884
sVfrozen carrot
p4562
I2082
sVpepperoncini
p4563
I3957
sVpink salmon
p4564
I4030
sVprepared pesto
p4565
I4191
sVitalian-style salad newman 's
p4566
I2772
sVbeef
p4567
I288
sVvanilla ice cream
p4568
I5557
sVshiitake
p4569
I4679
sVsubmarine
p4570
I5100
sVbeer
p4571
I336
sVspread
p4572
I4988
sVbeet
p4573
I339
sVonion cut wedge
p4574
I3768
sVfrozen pie crust
p4575
I2118
sVcaramel kraft caramel bit
p4576
I752
sVwinter squash seed
p4577
I5747
sVgreen bell cut thin strip
p4578
I2339
sVbutter cut piece
p4579
I650
sVcracker
p4580
I1217
sVsmall onion cut piece
p4581
I4827
sVkentucky
p4582
I2915
sVfrozen pea carrot
p4583
I2115
sVcracked
p4584
I1216
sVmini semi-sweet chocolate chip
p4585
I3587
sVgaram
p4586
I2165
sVchervil
p4587
I862
sVpasta sauce
p4588
I3891
sVbeef tongue
p4589
I333
sVserrano chile
p4590
I4633
sVserrano chili
p4591
I4637
sVdry peanut
p4592
I1492
sVcarnation
p4593
I765
sVloaf cheese food velveeta
p4594
I3283
sVpepper salmon
p4595
I3942
sVsugar snap pea
p4596
I5109
sVwater chestnut
p4597
I5640
sVirish stout beer guinness
p4598
I2742
sVpapaya
p4599
I3864
sVhalf-moon
p4600
I2482
sVfresh asparagus spear
p4601
I1878
sVcilantro finely
p4602
I999
sVocean
p4603
I3730
sVhearty
p4604
I2561
sVwhite sugar
p4605
I5717
sVfluid bottle root beer
p4606
I1806
sVfresh parsley garnish
p4607
I1990
sVcampbell
p4608
I706
sVgarlic herb feta cheese
p4609
I2180
sVjalapeno pepper juice
p4610
I2788
sVspaghetti piece
p4611
I4947
sVcorn chip
p4612
I1168
sVcherry
p4613
I852
sVmustard seed
p4614
I3667
sVcollard
p4615
I1121
sVkelp
p4616
I2914
sVfocaccia
p4617
I1833
sVbottle barbeque sauce
p4618
I480
sVmedium eggplant round
p4619
I3483
sVground mace
p4620
I2433
sVfrench baguette cut thick circle
p4621
I1854
sVgreen onion garnish
p4622
I2370
sVhot pepper
p4623
I2664
sVthinly prosciutto
p4624
I5308
sVrice vinegar cider vinegar
p4625
I4425
sVfinely onion
p4626
I1713
sVmirin
p4627
I3600
sVhunt
p4628
I2694
sVhoney-roasted peanut
p4629
I2629
sVsweet thai basil
p4630
I5161
sVbosc pear
p4631
I472
sVlarge head cabbage finely
p4632
I3051
sVuncooked farfalle bow tie pasta
p4633
I5478
sVskinless boneless breast meat
p4634
I4742
sVfinely cilantro
p4635
I1684
sVsemi-sweet chocolate chip
p4636
I4625
sVmirin japanese rice wine
p4637
I3601
sVcorn flake crumb
p4638
I1171
sVbeef flank steak thick diagonal
p4639
I304
sVice
p4640
I2697
sVseasoned salt taste
p4641
I4604
sVchia seed
p4642
I867
sVplantain
p4643
I4065
sValmond piece
p4644
I56
sVground pecan
p4645
I2440
sVplain greek-style yogurt
p4646
I4055
sVhot milk degree degree c
p4647
I2661
sVcorn
p4648
I1164
sVextra-large paper muffin regular paper muffin cake
p4649
I1585
sVmozzarella cheese cut cube
p4650
I3642
sVplum
p4651
I4066
sVturbinado
p4652
I5435
sVlime wedge garnish
p4653
I3250
sVhillshire farm lit'l smokies
p4654
I2595
sVdinner
p4655
I1434
sVtomatillo
p4656
I5350
sVcurry
p4657
I1340
sVlarge orange
p4658
I3081
sVfluid bottle room temperature beer
p4659
I1805
sVunsalted
p4660
I5521
sVahi
p4661
I18
sVlong skewer
p4662
I3333
sVfinely
p4663
I1668
sVlarge head romaine bite size piece
p4664
I3053
sVbeef chuck roast
p4665
I296
sVvirgin
p4666
I5613
sVwildflower
p4667
I5741
sVgin
p4668
I2222
sVcold coffee
p4669
I1108
sVlowfat
p4670
I3363
sVhead
p4671
I2526
sVmedium
p4672
I3466
sVcube vegetable bouillon
p4673
I1315
sVshredded mexican blend cheese
p4674
I4700
sVshortening slightly
p4675
I4689
sVuncle
p4676
I5466
sVcheddar-monterey
p4677
I832
sVjar picante sauce
p4678
I2846
sVfresh mint leaf garnish
p4679
I1970
sVfrozen puff pastry sheet cut
p4680
I2127
sVjar pasta sauce
p4681
I2840
sVsour cherry
p4682
I4923
sVolive oil taste
p4683
I3758
sVtrim
p4684
I5420
sVcoarse ground black pepper
p4685
I1031
sVmushroom liquid
p4686
I3659
sVminiature semisweet chocolate chip
p4687
I3596
sVlarge onion finely
p4688
I3074
sVsweet green pickle relish
p4689
I5142
sVswiss cheese cut strip
p4690
I5167
sVtin
p4691
I5338
sVcavatelli
p4692
I796
sVtie
p4693
I5332
sVturkey neck giblet
p4694
I5450
sVmedium potato
p4695
I3506
sVsmall sweet onion vidalia
p4696
I4862
sVpesto sauce
p4697
I3967
sVfresh frozen mixed berry
p4698
I1926
sVdark soy sauce
p4699
I1367
sVcarapelli virgin olive oil
p4700
I755
sVnavel
p4701
I3679
sVsardine olive oil king oscar
p4702
I4560
sVanaheim chile pepper
p4703
I72
sVsmall onion cut small dice
p4704
I4828
sVlarge stalk celery cut piece
p4705
I3126
sVrom
p4706
I4457
sVbeef onion soup mix
p4707
I310
sVroe
p4708
I4455
sVuncooked orzo pasta
p4709
I5497
sVoregano taste
p4710
I3808
sVyellow cake mix pudding
p4711
I5783
sVfloweret
p4712
I1787
sVbutter shortening
p4713
I660
sVbunch fresh spinach stem
p4714
I621
sVsmall clam shell
p4715
I4794
sVfrozen cheese ravioli
p4716
I2083
sVmelon
p4717
I3531
sVfresh tomatillo husk
p4718
I2035
sVplain sour cream
p4719
I4060
sVchicken cut piece
p4720
I880
sVjif peanut butter
p4721
I2884
sVcook
p4722
I1146
sVpasta shape choice
p4723
I3892
sVargo powder
p4724
I119
sVbutter room temperature
p4725
I659
sVmanchego cheese
p4726
I3388
sVfresh lemon juice taste
p4727
I1957
sVgranny smith apple
p4728
I2299
sVquick
p4729
I4247
sVpork
p4730
I4090
sVheinz
p4731
I2567
sVchicken bone skin cut piece
p4732
I871
sVgreen food coloring
p4733
I2360
sVmayonnaise hellmann 's food
p4734
I3444
sVbutter-flavored cracker
p4735
I663
sVbamboo shoot
p4736
I228
sVbake
p4737
I210
sVport
p4738
I4118
sVsubstitute
p4739
I5102
sVdry fettuccini pasta
p4740
I1474
sVunripe
p4741
I5520
sVall-purpose potato unpeeled cut medium dice
p4742
I46
sVcarton low-sodium chicken broth
p4743
I786
sVgingersnap
p4744
I2228
sVpear cut
p4745
I3920
sVirish bacon
p4746
I2739
sVbasil pesto
p4747
I264
sVwater
p4748
I5639
sVfresh mushroom thick
p4749
I1980
sVbisquick
p4750
I360
sVgreen bell pepper
p4751
I2342
sVdeep-frying
p4752
I1387
sVhealthy
p4753
I2556
sVcinnamon
p4754
I1003
sVsea salt
p4755
I4589
sVlarge english cucumber finely
p4756
I3014
sVmccormick
p4757
I3450
sVmandarin orange segment
p4758
I3392
sVbalsamic vinegar taste
p4759
I226
sVraisin nut bran cereal
p4760
I4261
sVorange cut wedge
p4761
I3785
sVwhite american cheese
p4762
I5681
sVbottle hot sauce
p4763
I493
sVminced lemon grass
p4764
I3577
sVhearty farmhouse-style bread cut cube
p4765
I2562
sVmsg
p4766
I3644
sVbacon cut
p4767
I175
sVapple juice
p4768
I104
sVlarge apple
p4769
I2971
sVred pepper flake garnish
p4770
I4349
sVchocolate
p4771
I942
sVcoarsely ground fresh black pepper
p4772
I1058
sVgochujang korean hot pepper paste
p4773
I2250
sVred paste food
p4774
I4346
sVpraline liqueur
p4775
I4149
sVsplenda granular
p4776
I4979
sValfredo-style
p4777
I34
sVpickle
p4778
I3980
sVkielbasa piece
p4779
I2928
sVdry sherry
p4780
I1498
sVghee butter
p4781
I2216
sVcornflakes
p4782
I1187
sVturbinado sugar
p4783
I5436
sVharissa
p4784
I2514
sVshrimp cut lengthwise
p4785
I4708
sVmild italian sausage link
p4786
I3557
sVvital
p4787
I5616
sVfourth
p4788
I1843
sVfresh rosemary
p4789
I2006
sVcocktail
p4790
I1070
sVmedium russet potato
p4791
I3517
sVsalt black pepper
p4792
I4532
sVeighth
p4793
I1548
sVliquid
p4794
I3266
sVjoint
p4795
I2890
sVcoarsely cashew
p4796
I1048
sVbone-in ham
p4797
I421
sVwish-bone italian dressing
p4798
I5749
sVloaf bread crust
p4799
I3279
sVjar pimento
p4800
I2847
sVsalmon fillet skin
p4801
I4525
sVraw pumpkin seed
p4802
I4291
sVrye
p4803
I4504
sVbanana coarsely
p4804
I232
sVrare deli roast beef thick bite-size strip
p4805
I4276
sVfrench roll split
p4806
I1869
sVthin rice noodle
p4807
I5272
sVcorn husk
p4808
I1173
sVboneless skinless thigh cut strip
p4809
I466
sVrefrigerated
p4810
I4397
sVwhite chocolate chip
p4811
I5697
sVhalved seedless red grape
p4812
I2488
sVcider vinegar
p4813
I997
sVgreen red bell
p4814
I2387
sVtri-color rotini pasta
p4815
I5419
sVloaf cheese
p4816
I3281
sVfresh tomato
p4817
I2036
sVindividually
p4818
I2712
sVdry non-fat milk powder
p4819
I1489
sVfrozen french fry
p4820
I2096
sVcrawfish tail
p4821
I1227
sVchicken stock
p4822
I894
sVchicken drumettes
p4823
I882
sVfresh jalapeno seed
p4824
I1954
sVcheese curd
p4825
I837
sVeagle
p4826
I1512
sVdry ziti pasta
p4827
I1503
sVbunch cilantro
p4828
I600
sVthinly-julienned
p4829
I5319
sVcold half-and-half
p4830
I1110
sVapricot-mango
p4831
I113
sVwheat bran
p4832
I5661
sVgranule
p4833
I2306
sVlarge green bell lengthwise
p4834
I3039
sVloaf cube
p4835
I3289
sVblack bean bush 's
p4836
I374
sVprepared shortbread pie crust
p4837
I4198
sVgreen chili pepper
p4838
I2356
sVboneless chuck roast
p4839
I440
sVcold butter cut piece
p4840
I1105
sVnonfat plain yogurt
p4841
I3708
sVbunch asparagus cut piece
p4842
I596
sVmasala
p4843
I3431
sVwhite
p4844
I5680
sVpork butt cut cube
p4845
I4092
sVseason
p4846
I4599
sVpork sausage link
p4847
I4102
sVskinless boneless breast thinly
p4848
I4751
sVpita bread round
p4849
I4039
sVsmall red onion finely
p4850
I4846
sVwide
p4851
I5736
sVmexican style hot tomato sauce
p4852
I3538
sVsmall star-shaped pasta
p4853
I4858
sVbulk breakfast sausage
p4854
I586
sVwedge lemon
p4855
I5654
sVgreen tomato
p4856
I2391
sVcoarse-grain brown mustard
p4857
I1042
sVred onion cut square
p4858
I4339
sVjar marinara sauce
p4859
I2833
sVfresh mushroom coarsely
p4860
I1977
sVuncooked glutinous white rice sushi rice
p4861
I5480
sVlarge tomato coarsely
p4862
I3136
sVfresh mozzarella cut small cube
p4863
I1975
sVpillsbury classic traditional fudge brownie
p4864
I4005
sVbread machine yeast
p4865
I534
sVplain bread crumb
p4866
I4052
sVcrimini
p4867
I1276
sVdry garbanzo bean
p4868
I1476
sVsmall green chile pepper
p4869
I4805
sVgenoa salami thinly
p4870
I2210
sVbok choy
p4871
I413
sVbeau monde
p4872
I286
sVboiling
p4873
I410
sVbunch fresh green onion
p4874
I614
sVpepper jack cheese
p4875
I3941
sVcream celery soup
p4876
I1230
sVseafood
p4877
I4594
sVpepperjack cheese
p4878
I3951
sVbulk hot pork sausage jimmy dean
p4879
I588
sVjar dill strip lengthwise
p4880
I2822
sVfreshly cotija cheese
p4881
I2045
sVminiature chocolate peanut butter
p4882
I3592
sVred onion coarsely
p4883
I4337
sVloaf french bread
p4884
I3296
sVlarge bone-in chicken breast skin
p4885
I2983
sVboneless pork loin thin
p4886
I446
sVcoarse sea salt
p4887
I1037
sVrecipe
p4888
I4301
sVcapacola
p4889
I742
sVqueso fresco
p4890
I4246
sVmister
p4891
I3606
sVfinely scallion green top
p4892
I1722
sVnectarine
p4893
I3685
sVrotelle spiral pasta
p4894
I4478
sVtomatillo salsa
p4895
I5352
sVfresh mozzarella cheese small chunk
p4896
I1974
sVfinely saltine cracker crumb
p4897
I1721
sVhoney mustard
p4898
I2621
sVstalk celery finely
p4899
I5038
sVturkey hot dog
p4900
I5445
sVfluid italian dressing
p4901
I1815
sVgruyere
p4902
I2462
sVtomato green chilies
p4903
I5369
sVsmall head iceberg lettuce
p4904
I4814
sVsopressata
p4905
I4915
sVfresh cilantro taste
p4906
I1908
sVdark molasses
p4907
I1362
sValuminum
p4908
I59
sVonion cut
p4909
I3763
sVfresh thyme
p4910
I2030
sVcumin
p4911
I1334
sVtorn lettuce leaf
p4912
I5405
sVprepared horseradish sauce
p4913
I4185
sVbottle champagne
p4914
I485
sVpaper
p4915
I3865
sVmushroom stem cap
p4916
I3661
sVzatarain
p4917
I5807
sVpacket dry vegetable soup mix
p4918
I3838
sVstew meat
p4919
I5061
sVpicnic
p4920
I3985
sValmond paste
p4921
I55
sVlemon wedge garnish
p4922
I3201
sVtomato salsa
p4923
I5378
sVunsweetened coconut milk
p4924
I5539
sVpure maple syrup
p4925
I4234
sVbunch fresh basil
p4926
I608
sVmixed vegetable
p4927
I3616
sVgreen pepper sauce tabasco taste
p4928
I2385
sVgarlic sliver
p4929
I2195
sVwater-packed
p4930
I5644
sVsmall red bell coarsely
p4931
I4844
sVbite-sized
p4932
I369
sVorange juice
p4933
I3788
sVbottle porter beer room temperature
p4934
I500
sVlarge boneless skinless breast
p4935
I2986
sVberry
p4936
I351
sVcolor
p4937
I1123
sVparmesan cheese taste
p4938
I3875
sVblackberry jelly
p4939
I392
sVprepared marinara sauce
p4940
I4187
sVbunch cilantro leaf
p4941
I602
sVpod
p4942
I4075
sVturkey
p4943
I5437
sVboneless skinless breast thin strip
p4944
I460
sVjar sun-dried tomato oil
p4945
I2865
sVyellow split pea
p4946
I5796
sVfresh salsa
p4947
I2010
sVbeef tenderloin steak cut thick total
p4948
I332
sVreduced-sodium chili mccormick chili mix sodium
p4949
I4394
sVworcestershire
p4950
I5762
sVravioli
p4951
I4285
sVenglish cucumber cut matchstick
p4952
I1561
sVrestaurant-style tortilla chip
p4953
I4406
sVchicken sausage round
p4954
I891
sVtiger
p4955
I5333
sVcooked skinless boneless bite-size piece
p4956
I1152
sVoscar mayer bacon
p4957
I3820
sVpesto
p4958
I3965
sVcountry style french bread
p4959
I1206
sVcold cream cheese cut cube
p4960
I1109
sVjalapeno pepper seed
p4961
I2792
sVmonosodium glutamate msg
p4962
I3626
sVfresh asparagus tip stalk
p4963
I1879
sVranch mix
p4964
I4265
sVpeach syrup
p4965
I3908
sVcrab broken piece
p4966
I1211
sVasian chile pepper sauce
p4967
I135
sVyellow onion
p4968
I5790
sVcoarse-ground
p4969
I1043
sVunsalted dry cashew
p4970
I5528
sVrice vinegar
p4971
I4424
sVloaf bread
p4972
I3278
sVloaf french bread cut diagonally
p4973
I3299
sVcoarsely
p4974
I1044
sVbottle cold champagne
p4975
I488
sVbermuda
p4976
I349
sVmacaroni
p4977
I3381
sVcatfish
p4978
I791
sVchuck roast
p4979
I982
sVpecan emerald pecan pie pecan
p4980
I3930
sVnon-stick
p4981
I3702
sVbroth
p4982
I563
sVactivedry
p4983
I10
sVranch
p4984
I4264
sVfillet salmon
p4985
I1654
sVlink hot italian sausage
p4986
I3261
sVlarge clove garlic
p4987
I2995
sVoriental sesame oil
p4988
I3812
sVtip
p4989
I5341
sVpickapeppa
p4990
I3979
sVpolish
p4991
I4077
sVsalt ground black pepper taste
p4992
I4539
sVunsalted saltine cracker
p4993
I5529
sVkosher dill
p4994
I2949
sVcream cheese soft
p4995
I1236
sVbunch fresh parsley
p4996
I617
sVmedium carrot
p4997
I3475
sVgoya sodium chick pea
p4998
I2280
sVgrain mustard
p4999
I2293
sVchive taste
p5000
I941
sVcottage cheese
p5001
I1198
sVdry lasagna noodle
p5002
I1481
sVzesty italian dressing
p5003
I5810
sVtomato onion garlic
p5004
I5374
sVlarge onion thinly
p5005
I3080
sVvelveeta cut
p5006
I5591
sVfinely fresh spinach leaf
p5007
I1699
sVnon-dairy
p5008
I3694
sVitalian-style plum tomato coarsely
p5009
I2770
sVvidalia sweet onion
p5010
I5602
sVreduced
p5011
I4375
sVamerican cheese food
p5012
I64
sVfluid pilsner-style beer
p5013
I1823
sVhead cabbage thinly
p5014
I2533
sVsea salt ground black pepper taste
p5015
I4591
sVgolden raisin
p5016
I2256
sVjellied cranberry sauce
p5017
I2877
sVred lentil
p5018
I4334
sVsmall zucchini cut matchstick
p5019
I4873
sVthick thick french bread
p5020
I5237
sVmoon
p5021
I3633
sVmedium bell yellow cut medium dice
p5022
I3474
sVmixed baby green
p5023
I3610
sVvine-ripened tomato cut
p5024
I5606
sVdiced
p5025
I1413
sVitalian seasoning
p5026
I2761
sVtexas toast thick-sliced bread
p5027
I5217
sVlarge yellow onion thinly
p5028
I3147
sVlarge garlic finely
p5029
I3031
sVcrunchy peanut butter
p5030
I1301
sVjar chocolate fudge room temperature
p5031
I2816
sVmedium cucumber lengthwise
p5032
I3481
sVshrimp
p5033
I4706
sVpistachio
p5034
I4034
sVjar sweet pickle
p5035
I2866
sVchive
p5036
I939
sVear corn
p5037
I1515
sVsprig fresh cilantro finely
p5038
I4990
sVfrench green lentil
p5039
I1863
sVchile-garlic
p5040
I912
sVhead garlic clove
p5041
I2541
sVphyllo dough
p5042
I3976
sVoverripe
p5043
I3821
sVlemon jell-o mix
p5044
I3191
sVgreen chile taste
p5045
I2355
sVwarm water
p5046
I5633
sVfluffy white bread
p5047
I1790
sVvalley
p5048
I5549
sVfresh lime juice taste
p5049
I1963
sVjus
p5050
I2904
sVpotato thinly
p5051
I4142
sVplain bagel split
p5052
I4051
sVprepared dashi stock
p5053
I4175
sVbouillon
p5054
I509
sVskinless boneless breast thin strip
p5055
I4750
sVgrass
p5056
I2314
sVmultigrain bread
p5057
I3652
sVmedium mango
p5058
I3497
sVrusset
p5059
I4497
sVwhite tuna
p5060
I5720
sVtaste
p5061
I5202
sVwish-bone
p5062
I5748
sVbourbon whiskey
p5063
I512
sVbroccoli cut floret
p5064
I558
sVfreshly parmigiano-reggiano cheese taste
p5065
I2057
sVchinese five-spice powder
p5066
I926
sVice cube
p5067
I2699
sVsemi-sweet
p5068
I4624
sVflat rice noodle
p5069
I1761
sVkikkoman bread crumb
p5070
I2934
sVsmall ripe banana
p5071
I4850
sVdashi
p5072
I1369
sVthin-sliced beef luncheon meat
p5073
I5278
sVfresh mushroom
p5074
I1976
sVginger root
p5075
I2227
sVcayenne pepper garnish
p5076
I802
sVgiardiniera
p5077
I2218
sVcrescent dinner roll
p5078
I1272
sVextra-lean ground beef
p5079
I1589
sVpoppy seed salad
p5080
I4085
sVunpeeled
p5081
I5512
sVenglish cucumber
p5082
I1560
sVchinese
p5083
I924
sVstone-ground mustard
p5084
I5072
sVale
p5085
I29
sVparmesan
p5086
I3871
sVdish
p5087
I1442
sVsalmon fillet steak
p5088
I4527
sVthinly scallion
p5089
I5315
sVred bell cut strip
p5090
I4314
sVtomato liquid
p5091
I5372
sVpinto
p5092
I4031
sVoil-packed sun-dried tomato
p5093
I3738
sVsharp white cheddar cheese
p5094
I4661
sVfat
p5095
I1609
sVharissa taste
p5096
I2515
sVhemp
p5097
I2572
sVlimoncello liqueur
p5098
I3253
sVlight butter
p5099
I3220
sVjumbo buttermilk biscuit
p5100
I2900
sVconfectioner sugar decoration
p5101
I1142
sVmustard taste
p5102
I3668
sVvanilla
p5103
I5550
sVjar creamy ranch salad
p5104
I2819
sVtel
p5105
I5207
sVtea
p5106
I5206
sVsoft sandwich roll
p5107
I4909
sVbanana-flavored
p5108
I240
sVcucumber lengthwise thinly crosswise
p5109
I1330
sVgingersnap cooky
p5110
I2230
sVtoothpick
p5111
I5393
sVlong-grain white rice
p5112
I3335
sVcrust
p5113
I1303
sVfinely chinese cabbage
p5114
I1676
sVcondensed
p5115
I1138
sVdill pickle juice
p5116
I1430
sVlarge head cabbage cut wedge
p5117
I3050
sVkaro light dark corn syrup
p5118
I2913
sVpumpernickel
p5119
I4225
sVthickly strawberry
p5120
I5249
sVjalapeno chile finely
p5121
I2779
sVpiece fresh ginger root thinly
p5122
I3999
sVlong grain white rice
p5123
I3332
sVpiece focaccia
p5124
I3996
sVminiature
p5125
I3590
sVvenison steak
p5126
I5595
sVorecchiette
p5127
I3804
sVguacamole
p5128
I2465
sVgreat northern bean
p5129
I2318
sVwhite bread crust
p5130
I5685
sVlarge beet top bottom beet green
p5131
I2980
sVitalian-style bread crumb
p5132
I2767
sVfrench bread baguette split lengthwise
p5133
I1859
sVrustic
p5134
I4502
sVstrawberry-flavored cream cheese
p5135
I5086
sVgarnish
p5136
I2205
sVflat
p5137
I1758
sVflax
p5138
I1770
sVspanish chorizo sausage finely
p5139
I4951
sVpectin
p5140
I3935
sVstick
p5141
I5062
sVasian dark sesame oil
p5142
I139
sVground ancho chile pepper
p5143
I2404
sVtapioca
p5144
I5190
sVfreshly parmigiano-reggiano cheese
p5145
I2056
sVuncooked white long-grain rice
p5146
I5507
sVneufchatel cheese
p5147
I3688
sVlarge cucumber lengthwise cut
p5148
I3002
sVground mustard
p5149
I2435
sVwhite party roll
p5150
I5709
sVjar bacon bit
p5151
I2808
sVred currant jelly
p5152
I4324
sVimitation
p5153
I2705
sVripe strawberry
p5154
I4442
sVcoconut extract
p5155
I1077
sVsmall pretzel twist
p5156
I4843
sVfresh goat cheese
p5157
I1932
sVchinese cabbage
p5158
I925
sVgarlic herb dry bread crumb
p5159
I2179
sVgoat
p5160
I2244
sVpiece long red vine licorice
p5161
I4001
sVsandwich
p5162
I4553
sVal fresco pepper asiago sausage thinly
p5163
I22
sVshort
p5164
I4685
sVdijon mustard taste
p5165
I1423
sVshore
p5166
I4684
sVhalibut
p5167
I2483
sVscallion thinly
p5168
I4580
sVreduced sodium chicken broth
p5169
I4377
sVapple butter
p5170
I96
sVbulk pork sausage
p5171
I592
sVthin deli ham
p5172
I5259
sVmission
p5173
I3603
sVlimoncello
p5174
I3252
sVsprig fresh mint
p5175
I4993
sVlarge potato cut large chunk
p5176
I3091
sVsirloin steak
p5177
I4719
sVsmall sugar pumpkin
p5178
I4860
sVmixed nut
p5179
I3613
sVstyle
p5180
I5099
sVwhite onion finely
p5181
I5708
sVyellow onion finely
p5182
I5792
sVpearl couscous
p5183
I3924
sVsweet spanish onion thinly
p5184
I5160
sVjar pepperoncini pepper
p5185
I2844
sVboneless
p5186
I430
sVlime thinly
p5187
I3248
sVcream tartar
p5188
I1244
sVcrispy rice cereal square e rice chex
p5189
I1289
sVpacket saltine cracker
p5190
I3844
sVlarge dill pickle
p5191
I3005
sVfluid bottle chile sauce
p5192
I1795
sVsmall meatball
p5193
I4820
sVground nutmeg taste
p5194
I2437
sVlarge lettuce leaf
p5195
I3059
sVfriendship
p5196
I2067
sVpork sausage meat
p5197
I4103
sVsweet paprika
p5198
I5150
sVfennel seed
p5199
I1633
sVpork rib cut size piece
p5200
I4099
sVlarge ripe tomato
p5201
I3108
sVfarfalle
p5202
I1603
sVfreshly ground black pepper taste
p5203
I2048
sVall-purpose
p5204
I38
sVfluid milk
p5205
I1821
sVfrozen blueberry dry pack
p5206
I2079
sVoat cereal ring
p5207
I3725
sVcookie
p5208
I1154
sVham thinly
p5209
I2494
sVworcestershire sauce taste
p5210
I5764
sVconecuh
p5211
I1139
sVlemon pepper
p5212
I3196
sVchopped date
p5213
I971
sVthread
p5214
I5325
sVmacadamia nut
p5215
I3380
sVfresh raspberry blackberry dry strawberry
p5216
I2002
sVboneless pork loin chop cut thick
p5217
I443
sVdry ranch salad mix
p5218
I1495
sVreduced-fat feta cheese
p5219
I4383
sVfluid brandy
p5220
I1808
sVchili oil
p5221
I919
sVsmall red onion
p5222
I4845
sVcold water
p5223
I1113
sVpacket goya salad vegetable seasoning
p5224
I3839
sVbulb garlic
p5225
I581
sVhoney nut chex cereal
p5226
I2623
sVboneless skinless bite-size piece
p5227
I453
sVtemperature
p5228
I5208
sVgourmet
p5229
I2263
sVbrisket
p5230
I555
sVchocolate frosting
p5231
I950
sVscallion
p5232
I4579
sVcherry lightly
p5233
I854
sVcholesterol-free egg product
p5234
I967
sVorange-fleshed sweet potato
p5235
I3799
sVfettuccini pasta
p5236
I1642
sVsyrup
p5237
I5170
sVcelery salt
p5238
I809
sVsemisweet chocolate chip goody
p5239
I4630
sVpancake mix
p5240
I3857
sVcream-style
p5241
I1248
sVdry corn bread mix
p5242
I1464
sVgoya virgin olive oil
p5243
I2282
sVsport pepper
p5244
I4984
sVking
p5245
I2940
sVdouble
p5246
I1446
sVfluid jigger vodka
p5247
I1818
sVcorn tortilla
p5248
I1177
sVstalk
p5249
I5034
sVred boiling potato
p5250
I4320
sVmaraschino cherry juice
p5251
I3411
sVstale
p5252
I5029
sVred potato thick
p5253
I4360
sVcoarsely kalamata
p5254
I1060
sVdry curd cottage cheese
p5255
I1468
sVgala
p5256
I2160
sVtandoori
p5257
I5188
sVgolden delicious apple
p5258
I2254
sValbacore tuna water
p5259
I28
sVminiature marshmallow
p5260
I3593
sVmoist
p5261
I3619
sVbourbon
p5262
I511
sVsherry
p5263
I4675
sVseedless
p5264
I4610
sVcaper liquid
p5265
I747
sVfresco
p5266
I1873
sVorange peel
p5267
I3793
sVbrioche
p5268
I554
sVitalian sausage link
p5269
I2759
sVpetite tomato
p5270
I3972
sVreduced-fat italian salad
p5271
I4384
sVbutterball
p5272
I666
sVstalk celery
p5273
I5035
sVtraditional
p5274
I5417
sVdigiorno
p5275
I1418
sVbalsamic vinaigrette salad
p5276
I222
sVlarge potato thinly
p5277
I3096
sVdubliner
p5278
I1507
sVblue cheese salad
p5279
I401
sVfat-trimmed
p5280
I1625
sVpineapple cream cheese spread
p5281
I4022
sVhard-cooked egg
p5282
I2510
sVbeef bouillon granule
p5283
I290
sVgreen salsa
p5284
I2389
sVfluid food
p5285
I1813
sVbreast tenderloin strip
p5286
I549
sVground rosemary
p5287
I2445
sVred raspberry smucker 's
p5288
I4364
sVvegetable shortening
p5289
I5583
sVday french bread
p5290
I1373
sVflour tortilla
p5291
I1785
sVasian fish sauce
p5292
I140
sVdijon
p5293
I1420
sVrecipe pastry single crust pie
p5294
I4306
sVgoya garlic
p5295
I2271
sVsour cream
p5296
I4924
sVloaf cocktail rye bread
p5297
I3286
sVhot italian turkey sausage
p5298
I2657
sVreduced-sodium
p5299
I4392
sVbottle red wine
p5300
I503
sVyellow bell finely
p5301
I5777
sVchipotle chile powder
p5302
I934
sVjalapeno pepper
p5303
I2783
sVlight fruit pectin crystal
p5304
I3225
sVsmall carrot strip vegetable peeler
p5305
I4791
sVvine-ripened tomato cut piece
p5306
I5607
sVmaple sausage
p5307
I3402
sVandouille sausage cut
p5308
I82
sVbar chocolate candy
p5309
I242
sVgerman chocolate cake mix
p5310
I2213
sVbunch dinosaur kale stem roughly
p5311
I605
sVcreme
p5312
I1258
sVsole
p5313
I4910
sVmandarin orange juice
p5314
I3391
sVgreek goddess salad
p5315
I2321
sVfrozen puff pastry sheet
p5316
I2126
sVground meal
p5317
I2434
sVc
p5318
I689
sVthin honey-cured deli ham
p5319
I5265
sVgraham cracker square
p5320
I2290
sVcrescent dough roll
p5321
I1273
sVfreshly romano cheese
p5322
I2059
sVpeanut oil
p5323
I3916
sVboneless skinless breast
p5324
I455
sVdijon-style prepared mustard
p5325
I1426
sVvanilla fat-free yogurt
p5326
I5555
sVsweet
p5327
I5136
sVbraeburn fuji apple finely
p5328
I519
sVchicken bouillon cube
p5329
I873
sVcrispy
p5330
I1282
sVcrispy bacon
p5331
I1283
sVthin deli turkey breast
p5332
I5261
sVgorgonzola cheese
p5333
I2260
sVvanilla yogurt
p5334
I5566
sVbuttermilk
p5335
I670
sVpanko
p5336
I3860
sVchocolate caramel candy
p5337
I945
sVold-fashioned oat instant
p5338
I3745
sVguacamole taste
p5339
I2467
sVloaf day-old bread small piece
p5340
I3291
sVlarge sweet potato cut chunk
p5341
I3132
sVhormel
p5342
I2633
sVsheep-milk feta cheese taste
p5343
I4663
sVfrozen
p5344
I2071
sVseasoned rice vinegar
p5345
I4601
sVfluid beer
p5346
I1792
sVsour cream taste
p5347
I4926
sVvanilla-flavored hemp protein powder
p5348
I5570
sVfresh frozen broccoli floweret
p5349
I1924
sVsweet jamaican pepper sauce pickapeppa sauce
p5350
I5145
sVprepared au jus sauce
p5351
I4161
sVcreamy salad
p5352
I1255
sVtaco mix
p5353
I5178
sVcherry pie filling
p5354
I856
sVsweet potato long french fry
p5355
I5156
sVflour matzo meal ground blender fine powder
p5356
I1784
sVsliver
p5357
I4779
sVandouille
p5358
I80
sVbroccoli coleslaw mix
p5359
I557
sVthin prosciutto
p5360
I5267
sVstone-ground
p5361
I5071
sVnoodle
p5362
I3711
sVsumac
p5363
I5113
sVspicy barbeque sauce
p5364
I4966
sVchili garlic sauce
p5365
I918
sVsauteed mushroom
p5366
I4574
sVjar jalapeno pepper
p5367
I2828
sVsweet pickle relish taste
p5368
I5153
sVraw bacon
p5369
I4289
sVsalt black pepper taste
p5370
I4533
sVmargarine
p5371
I3413
sVlarge bone-in pork chop thick
p5372
I2984
sVfat sour cream
p5373
I1614
sVcube fresh pineapple
p5374
I1311
sVgoya red wine vinegar
p5375
I2279
sVchunky applesauce
p5376
I987
sVpeanut sauce house taste
p5377
I3918
sVsquare spring roll wrapper
p5378
I5019
sVnon-instant vanilla mix
p5379
I3701
sVhead broken floret
p5380
I2530
sVmatzo meal
p5381
I3438
sVcaesar salad
p5382
I694
sVorange cut segment footnote
p5383
I3784
sVboston bibb butter lettuce leaf
p5384
I475
sVfresh green chile pepper
p5385
I1937
sVbunch spinach
p5386
I635
sVahi tuna steak
p5387
I19
sVmarmalade
p5388
I3422
sVcube ice
p5389
I1312
sVindividual graham cracker
p5390
I2711
sVbutterscotch
p5391
I678
sVhome-style white bread cut cube
p5392
I2608
sVyogurt-covered
p5393
I5799
sVapple cider vinegar taste
p5394
I100
sVsquare semisweet chocolate
p5395
I5018
sVrice chex cereal
p5396
I4416
sVasian chili garlic sauce
p5397
I137
sVfresh jalapeno pepper stem
p5398
I1952
sVlow-fat sesame-ginger salad
p5399
I3352
sVmaple syrup splenda brand sweetener
p5400
I3405
sVpart skim mozzarella cheese
p5401
I3883
sVtomato-based chili sauce
p5402
I5388
sVavocado flesh
p5403
I151
sVunsalted butter tablespoon-size piece
p5404
I5526
sVnonfat dry milk powder
p5405
I3706
sVcalifornia chile pod
p5406
I704
sVsmall green bell pepper
p5407
I4803
sVwater chestnut finely
p5408
I5641
sVred white wine vinegar
p5409
I4369
sVrye bread
p5410
I4505
sVbutter cake mix
p5411
I647
sVkielbasa
p5412
I2927
sVlight soy milk
p5413
I3232
sVlarge egg yolk
p5414
I3012
sVlong
p5415
I3329
sVred bell
p5416
I4311
sVsalmon fillet bone skin
p5417
I4524
sVgreen bell cut strip
p5418
I2338
sVfresh spinach torn bite-sized piece
p5419
I2017
sVsweet onion
p5420
I5146
sVuncooked penne pasta
p5421
I5499
sVtomato bite-size piece
p5422
I5355
sVszechwan
p5423
I5171
sVcheese food
p5424
I839
sVfilet
p5425
I1648
sVfluid lemon-lime beverage
p5426
I1820
sVspaghetti mix
p5427
I4946
sVhawaiian sweet bread roll horizontally
p5428
I2524
sVham cut piece
p5429
I2492
sVapricot
p5430
I109
sVpeppermint
p5431
I3952
sVsmall bell
p5432
I4787
sVhusk
p5433
I2695
sVfreshly-ground
p5434
I2062
sVcardamom seed
p5435
I764
sVfresh mushroom finely
p5436
I1978
sVfresh pineapple cut chunk
p5437
I1997
sVdill
p5438
I1427
sVitalian-style seasoning
p5439
I2773
sVasian garlic-chili sauce
p5440
I141
sVspinach leaf
p5441
I4974
sVturkey stock
p5442
I5452
sVcranberry ocean craisins
p5443
I1223
sVlarge portobello mushroom
p5444
I3085
sVgraham
p5445
I2285
sVrainbow
p5446
I4256
sVlemon
p5447
I3184
sVpeach
p5448
I3905
sVfirm tofu
p5449
I1737
sVsaffron
p5450
I4508
sVwhite-wine vinegar rice vinegar
p5451
I5732
sVtomato sauce
p5452
I5379
sVsmall onion cut crosswise
p5453
I4826
sVfresh green bean
p5454
I1934
sVgreen bell pepper finely
p5455
I2344
sVmustard
p5456
I3664
sVwhite rye flour
p5457
I5716
sVbulk italian sausage
p5458
I589
sVenglish hothouse style cucumber
p5459
I1563
sVbeef flank steak thinly
p5460
I305
sVhead garlic
p5461
I2540
sVhard roll day-old
p5462
I2505
sVbuffalo
p5463
I579
sVsquare german sweet chocolate
p5464
I5015
sVfinely raw horseradish
p5465
I1718
sVtamarind paste
p5466
I5187
sVgreen pepper
p5467
I2384
sVcannellini white bean
p5468
I733
sVno-calorie
p5469
I3691
sVpeppermint extract
p5470
I3955
sVground breakfast sausage
p5471
I2410
sVlight soy sauce
p5472
I3233
sVsnow crab cluster
p5473
I4892
sVladyfinger cooky
p5474
I2962
sVsunflower seed oil
p5475
I5128
sVbottle italian-style salad
p5476
I496
sVmedium green onion finely white part
p5477
I3490
sVsoy milk
p5478
I4937
sVgarlic-herb
p5479
I2203
sVlight rum
p5480
I3230
sVgreen onion diagonally
p5481
I2368
sVgolden mushroom soup
p5482
I2255
sVcinnamon stick
p5483
I1008
sVmaple flavoring
p5484
I3401
sVhamburger bun split
p5485
I2497
sVpepper taste
p5486
I3943
sVmarinade
p5487
I3415
sVacid
p5488
I4
sVmedium green onion
p5489
I3489
sVfresh cranberry
p5490
I1916
sVflaky biscuit dough
p5491
I1750
sVtarragon
p5492
I5193
sVwheat barley nugget cereal grape-nuts
p5493
I5660
sVgluten-free vanilla extract
p5494
I2240
sVjar smucker 's hot fudge microwaveable ice cream topping
p5495
I2862
sVcucumber thinly
p5496
I1333
sVsugar decoration
p5497
I5107
sVdegree
p5498
I1388
sVkalamata
p5499
I2907
sVsunflower seed taste
p5500
I5129
sVgluten-free
p5501
I2237
sVmedium carrot thick
p5502
I3478
sVsmall green onion finely
p5503
I4807
sVsugar-free syrup
p5504
I5112
sVgarlic powder taste
p5505
I2189
sVpotato chip
p5506
I4133
sVfresh lime wedge
p5507
I1964
sVjar maraschino
p5508
I2831
sVcinnamon sugar
p5509
I1009
sVdiameter brie cheese
p5510
I1411
sVheadless
p5511
I2555
sVchocolate cookie crumb
p5512
I949
sVmexican vanilla extract
p5513
I3539
sVapple
p5514
I95
sVbone-in pork shoulder roast
p5515
I425
sVlemon cake mix
p5516
I3185
sVlean boneless pork cut thin strip
p5517
I3172
sVsliced water chestnut
p5518
I4774
sVgerm
p5519
I2211
sVspring roll wrapper asian market
p5520
I5007
sVunsweetened applesauce
p5521
I5535
sVfrozen petite pea
p5522
I2116
sVthinly mushroom yellow squash
p5523
I5302
sVcubed horseradish root
p5524
I1319
sVegg white
p5525
I1533
sVgarlic powder
p5526
I2188
sVbunch radish finely
p5527
I632
sVsmall pretzel
p5528
I4842
sVoriginal bisquick mix
p5529
I3816
sVfresh sage
p5530
I2008
sVfluid enchilada sauce
p5531
I1812
sVground chicken
p5532
I2415
sVfully-cooked
p5533
I2157
sVbiscuit
p5534
I355
sVred pepper sauce
p5535
I4353
sVbite-size pretzel
p5536
I367
sVbottle italian dressing
p5537
I494
sVbittersweet
p5538
I370
sVthinly ham
p5539
I5298
sVpeanut butter jif
p5540
I3913
sVtootsie
p5541
I5395
sVwhite sugar decoration
p5542
I5718
sVhillshire
p5543
I2594
sVlarge carrot cut round
p5544
I2991
sVcarrot
p5545
I767
sVlouisiana-style hot sauce
p5546
I3341
sVmonterey jack cheese cut
p5547
I3629
sVseafood bay
p5548
I4595
sVfresh crabmeat
p5549
I1915
sVstrawberry jell-o mix
p5550
I5079
sVcream-filled
p5551
I1246
sVeggplant round
p5552
I1545
sVloaf sourdough bread thickly
p5553
I3314
sVyork strip steak
p5554
I5802
sVpizza crust
p5555
I4043
sVpanko japanese bread crumb regular dry bread crumb
p5556
I3863
sVgallo
p5557
I2163
sVbacon strip cut
p5558
I187
sVdry fettuccine pasta
p5559
I1472
sVwhite corn syrup
p5560
I5700
sVjalapeno pepper lengthwise
p5561
I2789
sVturkey drumstick
p5562
I5443
sVhot pork sausage
p5563
I2677
sVtaco
p5564
I5176
sVlight
p5565
I3217
sVcount heart water
p5566
I1203
sVbeef stock
p5567
I329
sVcolada
p5568
I1095
sVdry couscous
p5569
I1466
sVlong-grain
p5570
I3334
sVboneless skinless chicken thigh
p5571
I462
sVground curry powder
p5572
I2426
sVhorizontally
p5573
I2632
sVground walnut
p5574
I2459
sVhoney-roasted
p5575
I2627
sVcotto
p5576
I1199
sVricotta
p5577
I4429
sVflour
p5578
I1783
sVloaf sourdough bread cut cube
p5579
I3313
sVgreen bell cut piece
p5580
I2336
sVemerald
p5581
I1553
sVsesame-ginger
p5582
I4648
sVsteel-cut
p5583
I5057
sVbutterworth 's
p5584
I683
sVhead cauliflower
p5585
I2534
sVcream-style corn
p5586
I1249
sVfrench baguette thinly
p5587
I1857
sVanchovy fillet
p5588
I77
sVfinely vidalia sweet onion
p5589
I1729
sVcorn tortilla cut wedge
p5590
I1181
sVcrescent roll
p5591
I1274
sVdry lentil
p5592
I1483
sVchocolate mint wafer candy
p5593
I955
sVreduced-fat mild cheddar-mozzarella cheese blend
p5594
I4386
sVbread lightly
p5595
I533
sVdouble-crust
p5596
I1447
sVwine vinegar
p5597
I5744
sVthick cut pork chop
p5598
I5230
sVground italian sausage
p5599
I2431
sVhot fudge
p5600
I2653
sVinstant rice
p5601
I2733
sVhungarian sweet paprika
p5602
I2693
sVkikkoman
p5603
I2933
sVsharp provolone cheese bite-size piece
p5604
I4660
sVreal maple syrup
p5605
I4300
sVsplenda calorie sweetener
p5606
I4978
sVlarge shrimp cut
p5607
I3115
sVseasoned rice wine vinegar
p5608
I4602
sVbouquet
p5609
I510
sVchipotle chile powder taste
p5610
I935
sVskinless halibut fillet
p5611
I4758
sVolive oil virgin
p5612
I3759
sVlean ground beef
p5613
I3173
sVfrench bread
p5614
I1858
sVred delicious apple
p5615
I4326
sVponzu
p5616
I4081
sVboil
p5617
I409
sVtidbit
p5618
I5331
sVloaf french baguette
p5619
I3294
sVshallot
p5620
I4650
sVfresh dill
p5621
I1918
sVchunk white chicken
p5622
I985
sVcoarsely fresh parsley
p5623
I1056
sVcube steak
p5624
I1313
sVground chuck
p5625
I2419
sVjar beef
p5626
I2809
sVhabanero pepper
p5627
I2474
sVplain low-fat yogurt
p5628
I4056
sVmexican-style cheese blend taste
p5629
I3543
sVreduced-sodium black bean
p5630
I4393
sVraisin taste
p5631
I4262
sVenglish muffin
p5632
I1564
sVmedium granny smith apple
p5633
I3487
sVfrozen italian-blend vegetable
p5634
I2103
sVbeer room temperature
p5635
I337
sVsugar-free
p5636
I5111
sVsmall bulb fennel thinly half-moon
p5637
I4789
sVclove
p5638
I1024
sVspicy fat-free refried bean
p5639
I4969
sVpace picante sauce
p5640
I3827
sVbagel
p5641
I207
sVuncooked quinoa
p5642
I5500
sVburrito-size
p5643
I641
sVfresh strawberry lengthwise
p5644
I2022
sVsliced swiss cheese
p5645
I4773
sVpineapple ring
p5646
I4026
sVartichoke heart liquid
p5647
I124
sVturkey leg
p5648
I5447
sVkentucky bourbon
p5649
I2916
sVsmall strip
p5650
I4859
sVtaste salt taste
p5651
I5203
sVprepared green chile salsa
p5652
I4180
sVlarge garlic clove
p5653
I3029
sVground coriander seed
p5654
I2424
sVfresh cilantro parsley
p5655
I1906
sVraw peanut shell
p5656
I4290
sVspanish onion finely
p5657
I4954
sVbratwurst
p5658
I525
sVwheat gluten
p5659
I5667
sVseaweed
p5660
I4606
sVchicken
p5661
I870
sVfillet cod
p5662
I1651
sVgouda cheese
p5663
I2262
sVsweet potato thinly
p5664
I5157
sVwell-marbled
p5665
I5657
sVcube
p5666
I1307
sVjar medium salsa
p5667
I2837
sVjar red pepper dry
p5668
I2855
sVroast-ready prime rib roast rib cut roast
p5669
I4452
sVfresh baby spinach
p5670
I1880
sVprepared dijon-style mustard
p5671
I4177
sVbaguette cut thick
p5672
I209
sVpork steak cutlet
p5673
I4110
sVsemisweet chocolate
p5674
I4627
sVonion cut piece
p5675
I3766
sVjarred jalapeno pepper
p5676
I2872
sVcarrot finely
p5677
I775
sVunsweetened cocoa powder
p5678
I5537
sVmanicotti
p5679
I3397
sVkimchi
p5680
I2939
sVhoneydew melon
p5681
I2631
sVportabella mushroom cap diameter stem
p5682
I4122
sVcream-style horseradish sauce
p5683
I1250
sVmostaccioli pasta
p5684
I3637
sVlarge red leaf lettuce leaf
p5685
I3100
sVsister schubert wheat dinner yeast roll cut piece
p5686
I4722
sVzucchini lengthwise cut
p5687
I5820
sVbarbeque
p5688
I252
sVstalk lemon grass
p5689
I5042
sVcut green bean
p5690
I1347
sVcake
p5691
I702
sVhot buffalo frank 's redhot buffalo sauce taste
p5692
I2639
sVbrandy-based orange liqueur grand marnier
p5693
I524
sVgrain
p5694
I2291
sVmedium carrot cut piece
p5695
I3477
sVground clove
p5696
I2422
sVunsweetened frozen raspberry blackberry blueberry
p5697
I5541
sVgoya corn tortilla
p5698
I2270
sVwhite pepper
p5699
I5710
sViceberg lettuce
p5700
I2702
sVsmall yellow onion
p5701
I4869
sVdry-roasted almond
p5702
I1505
sVmccormick pure vanilla extract
p5703
I3454
sVred leaf lettuce torn
p5704
I4333
sVstrawberry tip
p5705
I5081
sVfresh coarsely ground black pepper
p5706
I1909
sVwarm water degree degree
p5707
I5634
sVgarlic mushroom soup mix
p5708
I2183
sVgarlic light cream cheese
p5709
I2182
sVcooked boneless skinless breast
p5710
I1150
sVfresh basil
p5711
I1881
sVpineapple preserve
p5712
I4025
sVturkey sausage link
p5713
I5451
sVblack-eyed
p5714
I389
sVwild
p5715
I5739
sVlayer
p5716
I3156
sVbarely
p5717
I256
sVbacon cut piece
p5718
I177
sVuncooked macaroni pasta
p5719
I5493
sVbunch fresh kale cut bite-size piece
p5720
I615
sVmaldon
p5721
I3386
sVfritos corn chip
p5722
I2069
sVdry vermouth
p5723
I1500
sVprocess cheese sauce
p5724
I4210
sVmaple-flavored breakfast sausage
p5725
I3408
sVmedium scallion
p5726
I3518
sVlarge potato
p5727
I3088
sVstale white bread cut cube
p5728
I5033
sVphyllo
p5729
I3975
sVboneless skinless thigh bite-size piece
p5730
I463
sVpoblano
p5731
I4069
sVpork sausage
p5732
I4101
sVpumpkin seed
p5733
I4231
sVenglish
p5734
I1559
sVgarlic-flavored
p5735
I2201
sVenvelope dry onion soup mix
p5736
I1570
sVgreen onion
p5737
I2366
sVcheddar swiss cheese blend
p5738
I831
sVyukon gold potato cut
p5739
I5805
sVmedium eggplant
p5740
I3482
sVreduced-fat swiss cheese
p5741
I4391
sVitalian-seasoned
p5742
I2764
sVloaf french bread thick
p5743
I3302
sVlarge skinless boneless breast cut strip
p5744
I3119
sVrapid
p5745
I4272
sVsmith
p5746
I4875
sVchipotle chilies
p5747
I936
sVgarlic pepper
p5748
I2186
sVwhite wheat hamburger bun
p5749
I5727
sVgarlic herb cheese
p5750
I2178
sVlight olive oil
p5751
I3229
sVchicken broth
p5752
I877
sVegg yolk lightly
p5753
I1540
sVmedium red onion
p5754
I3511
sVno-salt-added ketchup
p5755
I3693
sVthick pork chop
p5756
I5236
sVwildflower honey
p5757
I5742
sVcutlet
p5758
I1351
sVhard salami
p5759
I2506
sVegg well-beaten
p5760
I1532
sVseedless blackberry jam
p5761
I4611
sVcut-up vegetable broccoli carrot tomato cauliflower onion mushroom
p5762
I1350
sVfresh shrimp tail
p5763
I2013
sVsmall yellow squash
p5764
I4870
sVregular oat
p5765
I4400
sVhot pepper frank 's redhot
p5766
I2665
sVnacho-flavor
p5767
I3672
sVsesame seed luck
p5768
I4646
sVleaf
p5769
I3157
sVpomegranate juice
p5770
I4080
sVlean
p5771
I3168
sVblack forest ham
p5772
I378
sVtrout
p5773
I5423
sVonion powder taste
p5774
I3774
sVsodium fat vegetable broth
p5775
I4902
sVboneless chicken breast lengthwise third
p5776
I438
sVpasta
p5777
I3890
sVpaste
p5778
I3894
sVrare
p5779
I4275
sVbreadcrumb
p5780
I537
sVstir-fry
p5781
I5066
sVlarge crescent roll dough
p5782
I2997
sVfoil
p5783
I1835
sVcheese sauce
p5784
I844
sVlarge cucumber lengthwise
p5785
I3001
sVdinner roll room temperature
p5786
I1437
sVlarge apple thinly
p5787
I2972
sVparmesan cheese
p5788
I3872
sVred bell piece
p5789
I4317
sVfat-free
p5790
I1615
sVjar caramel ice cream topping
p5791
I2814
sVcorkscrew-shaped pasta
p5792
I1163
sVreduced-sodium soy sauce
p5793
I4395
sVspiral
p5794
I4976
sVshank
p5795
I4654
sVuncooked long grain white rice
p5796
I5490
sVlamb meat cut cube
p5797
I2966
sVgranny
p5798
I2298
sVrotisserie chicken breast
p5799
I4483
sVpeach preserve
p5800
I3907
sVlemon garnish
p5801
I3190
sVlarge yukon gold potato cut cube
p5802
I3148
sVgarbanzo
p5803
I2167
sVbag spinach leaf
p5804
I205
sVsharp cheese
p5805
I4659
sVhamburger roll
p5806
I2499
sVfinely fresh cilantro
p5807
I1690
sVdiakon
p5808
I1409
sVhot freshly dark roast espresso coffee
p5809
I2652
sVsage ground breakfast sausage
p5810
I4512
sVboneless skinless thigh cut
p5811
I464
sVsmall head broccoli cut floret
p5812
I4809
sVasparagus spear
p5813
I147
sVmustard ketchup
p5814
I3665
sVsmooth peanut butter
p5815
I4887
sVcream cheese
p5816
I1231
sVground cinnamon mccormick saigon cinnamon
p5817
I2421
sVflour tortilla cut strip
p5818
I1786
sVshredded
p5819
I4693
sVred green food coloring
p5820
I4330
sVwarm buttermilk degree degree c
p5821
I5629
sVsplit hot dog bun
p5822
I4981
sVseedless raspberry jam
p5823
I4615
sVrib-eye steak
p5824
I4414
s.